ccopy_reg
_reconstructor
p1
(cgenetic
Population
p2
c__builtin__
object
p3
NtRp4
(dp5
S'generation'
p6
I120
sS'agents'
p7
(lp8
g1
(cgenetic
Organism
p9
g3
NtRp10
(dp11
S'status'
p12
(dp13
S'deme'
p14
S'pop_01'
p15
sS'vitality'
p16
F100
sS'lifespan'
p17
F100
sS'blood'
p18
(lp19
F23585.905276244262
aF-1.7615941559557649
aF-1.7615941559557755
aI-1
aF1.04390291356442
aF27706.854133648536
aF168.15864899243348
aF2.8065063422437256e+57
aF1.5430806348152437
aF2.4463520074491623
aF8.4744462220516689e+27
aF118.97523450454442
aF1.5430806348152437
aI0
aI0
aF4.052356840206249e+72
aI0
aI0
aI0
aI0
aI0
aI0
aI0
aI0
aI0
aI0
aI0
aI0
aI0
aI0
aI0
aI0
aI0
aI0
aI0
aI0
aI0
aI0
aI0
aI0
aI0
aI0
aI0
aI0
aI0
aI0
aI0
aI0
aI0
aI0
aI0
aI0
aI0
aI0
aI0
aI0
aI0
aI0
aI0
aI0
aI0
aI0
aI0
aI0
aI0
aI0
aI0
aI0
aI0
aI0
aI0
aI0
aI0
aI0
aI0
aI0
aI0
aI0
aI0
aI0
aI0
aI0
aI0
aI0
aI0
aI0
aI0
aI0
aI0
aI0
aI0
aI0
aI0
aI0
aI0
aI0
aI0
aI0
aI0
aI0
aI0
aI0
aI0
aI0
aI0
aI0
aI0
aI0
aI0
aI0
aI0
aI0
aI0
aI0
aI0
aI0
aI0
aI0
aI0
aI0
aI0
aI0
aI0
aI0
aI0
aI0
aI0
aI0
aI0
aI0
aI0
aI0
aI0
aI0
aI0
aI0
aI0
aI0
aI0
aI0
aI0
aI0
aI0
aI0
aI0
aI0
aI0
aI0
aI0
aI0
aI0
aI0
aI0
aI0
aI0
aI0
aI0
aI0
aI0
aI0
aI0
aI0
aI0
aI0
aI0
aI0
aI0
aI0
aI0
aI0
aI0
aI0
aI0
aI0
aI0
aI0
aI0
aI0
aI0
aI0
aI0
aI0
aI0
aI0
aI0
aI0
aI0
aI0
aI0
aI0
aI0
aI0
aI0
aI0
aI0
aI0
aI0
aI0
aI0
aI0
asS'age'
p20
F0
sS'alive'
p21
I01
sS'death'
p22
NsS'location'
p23
(I0
I0
I0
tp24
sS'fitness'
p25
F100
sS'identity'
p26
S'ItnTGeGZjoYv7ISl23&RYN8<vZAU$kzD'
p27
sS'chromosome_error'
p28
S'Error at Chromosome_0|math range error'
p29
ssS'gender'
p30
NsS'additional_mutation_rate'
p31
I0
sS'genome'
p32
(lp33
g1
(cgenetic
Chromosome
p34
g3
NtRp35
(dp36
S'background_mutation'
p37
F0.10000000000000001
sS'base'
p38
(lp39
S'0'
aS'1'
asS'sequence'
p40
(lp41
S'0'
aS'0'
aS'1'
aS'1'
aS'1'
aS'1'
aS'1'
aS'0'
aS'0'
aS'1'
aS'0'
aS'0'
aS'0'
aS'1'
aS'1'
aS'1'
aS'1'
aS'1'
aS'0'
aS'1'
aS'0'
aS'1'
aS'0'
aS'0'
aS'1'
aS'0'
aS'1'
aS'1'
aS'0'
aS'0'
asbasS'mutation_type'
p42
S'point'
p43
sbag1
(g9
g3
NtRp44
(dp45
g12
(dp46
g14
g15
sg16
F100
sg17
F100
sg18
(lp47
F4051.5411841969708
aF723128532155.73755
aF29947.070865949761
aF11063.232920103323
aF5.8163792453876901
aF0.83765727458231309
aF0.72275309796049558
aF28.999999972839205
aF1123691051.2776711
aI-2
aF4.2191783343707269e+26
aF43296700211996896
aF156.23833714107101
aI-1
aF0
aF242582596.70489514
aI17
aF0
aI0
aI0
aF1486.4791612521781
aI0
aI0
aI0
aI0
aI0
aI0
aI0
aI0
aI0
aI0
aI0
aI0
aI0
aI0
aI0
aI0
aI0
aI0
aI0
aI0
aI0
aI0
aI0
aI0
aI0
aI0
aI0
aI0
aI0
aI0
aI0
aI0
aI0
aI0
aI0
aI0
aI0
aI0
aI0
aI0
aI0
aI0
aI0
aI0
aI0
aI0
aI0
aI0
aI0
aI0
aI0
aI0
aI0
aI0
aI0
aI0
aI0
aI0
aI0
aI0
aI0
aI0
aI0
aI0
aI0
aI0
aI0
aI0
aI0
aI0
aI0
aI0
aI0
aI0
aI0
aI0
aI0
aI0
aI0
aI0
aI0
aI0
aI0
aI0
aI0
aI0
aI0
aI0
aI0
aI0
aI0
aI0
aI0
aI0
aI0
aI0
aI0
aI0
aI0
aI0
aI0
aI0
aI0
aI0
aI0
aI0
aI0
aI0
aI0
aI0
aI0
aI0
aI0
aI0
aI0
aI0
aI0
aI0
aI0
aI0
aI0
aI0
aI0
aI0
aI0
aI0
aI0
aI0
aI0
aI0
aI0
aI0
aI0
aI0
aI0
aI0
aI0
aI0
aI0
aI0
aI0
aI0
aI0
aI0
aI0
aI0
aI0
aI0
aI0
aI0
aI0
aI0
aI0
aI0
aI0
aI0
aI0
aI0
aI0
aI0
aI0
aI0
aI0
aI0
aI0
aI0
aI0
aI0
aI0
aI0
aI0
aI0
aI0
aI0
aI0
aI0
aI0
aI0
aI0
asg20
F0
sg21
I01
sg22
Nsg23
g24
sg25
F100
sg26
S'rgUdCEthPgRD6WcW&H&Bs3US$B98m?LN'
p48
sg28
S'Error at Chromosome_0|math range error'
p49
ssg30
Nsg31
I0
sg32
(lp50
g1
(g34
g3
NtRp51
(dp52
g37
F0.10000000000000001
sg38
(lp53
S'0'
aS'1'
asg40
(lp54
S'1'
aS'0'
aS'1'
aS'0'
aS'0'
aS'0'
aS'1'
aS'0'
aS'1'
aS'0'
aS'0'
aS'1'
aS'0'
aS'1'
aS'0'
aS'1'
aS'1'
aS'1'
aS'0'
aS'1'
aS'1'
aS'0'
aS'1'
aS'0'
aS'1'
aS'0'
aS'0'
aS'1'
aS'0'
aS'0'
asbasg42
g43
sbag1
(g9
g3
NtRp55
(dp56
g12
(dp57
g14
g15
sg16
F100
sg17
F100
sg18
(lp58
F11
aF847.13075452628118
aF1634518.6862362083
aI0
aI20
aF2.7187465432560997e+86
aF10
aI0
aI0
aI0
aF29947.070865949761
aF20.912636575853661
aF0
aI0
aI0
aI0
aF0.99999999944210638
aI0
aI0
aI0
aI0
aI0
aI0
aI0
aI0
aI0
aI0
aI0
aI0
aI0
aI0
aI0
aI0
aI0
aI0
aI0
aI0
aI0
aI0
aI0
aI0
aI0
aI0
aI0
aI0
aI0
aI0
aI0
aI0
aI0
aI0
aI0
aI0
aI0
aI0
aI0
aI0
aI0
aI0
aI0
aI0
aI0
aI0
aI0
aI0
aI0
aI0
aI0
aI0
aI0
aI0
aI0
aI0
aI0
aI0
aI0
aI0
aI0
aI0
aI0
aI0
aI0
aI0
aI0
aI0
aI0
aI0
aI0
aI0
aI0
aI0
aI0
aI0
aI0
aI0
aI0
aI0
aI0
aI0
aI0
aI0
aI0
aI0
aI0
aI0
aI0
aI0
aI0
aI0
aI0
aI0
aI0
aI0
aI0
aI0
aI0
aI0
aI0
aI0
aI0
aI0
aI0
aI0
aI0
aI0
aI0
aI0
aI0
aI0
aI0
aI0
aI0
aI0
aI0
aI0
aI0
aI0
aI0
aI0
aI0
aI0
aI0
aI0
aI0
aI0
aI0
aI0
aI0
aI0
aI0
aI0
aI0
aI0
aI0
aI0
aI0
aI0
aI0
aI0
aI0
aI0
aI0
aI0
aI0
aI0
aI0
aI0
aI0
aI0
aI0
aI0
aI0
aI0
aI0
aI0
aI0
aI0
aI0
aI0
aI0
aI0
aI0
aI0
aI0
aI0
aI0
aI0
aI0
aI0
aI0
aI0
aI0
aI0
aI0
aI0
aI0
aI0
aI0
aI0
aI0
asg20
F0
sg21
I01
sg22
Nsg23
g24
sg25
F100
sg26
S'HAcMd?oFn>FJTQ#LwYGf>Y=$6Yy%2=Ct'
p59
sg28
S'Error at Chromosome_0|math range error'
p60
ssg30
Nsg31
I0
sg32
(lp61
g1
(g34
g3
NtRp62
(dp63
g37
F0.10000000000000001
sg38
(lp64
S'0'
aS'1'
asg40
(lp65
S'0'
aS'1'
aS'1'
aS'0'
aS'1'
aS'1'
aS'0'
aS'1'
aS'1'
aS'0'
aS'1'
aS'0'
aS'1'
aS'1'
aS'0'
aS'1'
aS'0'
aS'0'
aS'1'
aS'0'
aS'1'
aS'0'
aS'1'
aS'0'
aS'1'
aS'1'
aS'0'
aS'0'
aS'0'
aS'0'
asbasg42
g43
sbag1
(g9
g3
NtRp66
(dp67
g12
(dp68
g14
g15
sg16
F100
sg17
F100
sg18
(lp69
F9.7615941531668202
aF10436.818909454923
aF4.052356840206249e+72
aF23586.905276244262
aI0
aF-5.0000000041223078
aF1836.2835222062017
aF4.052356840206249e+72
aF1.1769263341851e+17
aI-1
aF23585.905276244262
aF4.052356840206249e+72
aI50
aF-1
aI-1
aF2.4463520074491623
aF4.052356840206249e+72
aF1.5430806348152437
aF1
aI0
aI0
aF1
aI0
aI0
aI0
aI0
aI0
aI0
aI0
aI0
aI0
aI0
aI0
aI0
aI0
aI0
aI0
aI0
aI0
aI0
aI0
aI0
aI0
aI0
aI0
aI0
aI0
aI0
aI0
aI0
aI0
aI0
aI0
aI0
aI0
aI0
aI0
aI0
aI0
aI0
aI0
aI0
aI0
aI0
aI0
aI0
aI0
aI0
aI0
aI0
aI0
aI0
aI0
aI0
aI0
aI0
aI0
aI0
aI0
aI0
aI0
aI0
aI0
aI0
aI0
aI0
aI0
aI0
aI0
aI0
aI0
aI0
aI0
aI0
aI0
aI0
aI0
aI0
aI0
aI0
aI0
aI0
aI0
aI0
aI0
aI0
aI0
aI0
aI0
aI0
aI0
aI0
aI0
aI0
aI0
aI0
aI0
aI0
aI0
aI0
aI0
aI0
aI0
aI0
aI0
aI0
aI0
aI0
aI0
aI0
aI0
aI0
aI0
aI0
aI0
aI0
aI0
aI0
aI0
aI0
aI0
aI0
aI0
aI0
aI0
aI0
aI0
aI0
aI0
aI0
aI0
aI0
aI0
aI0
aI0
aI0
aI0
aI0
aI0
aI0
aI0
aI0
aI0
aI0
aI0
aI0
aI0
aI0
aI0
aI0
aI0
aI0
aI0
aI0
aI0
aI0
aI0
aI0
aI0
aI0
aI0
aI0
aI0
aI0
aI0
aI0
aI0
aI0
aI0
aI0
aI0
aI0
aI0
aI0
aI0
aI0
aI0
aI0
aI0
aI0
asg20
F0
sg21
I01
sg22
Nsg23
g24
sg25
F100
sg26
S'f$JUT78mlp?A<cbgA&z#Mm<ckCgJnDPq'
p70
sg28
S'Error at Chromosome_0|math range error'
p71
ssg30
Nsg31
I0
sg32
(lp72
g1
(g34
g3
NtRp73
(dp74
g37
F0.10000000000000001
sg38
(lp75
S'0'
aS'1'
asg40
(lp76
S'0'
aS'0'
aS'0'
aS'0'
aS'0'
aS'0'
aS'0'
aS'1'
aS'0'
aS'0'
aS'0'
aS'1'
aS'0'
aS'1'
aS'1'
aS'0'
aS'0'
aS'0'
aS'0'
aS'0'
aS'0'
aS'0'
aS'1'
aS'1'
aS'0'
aS'0'
aS'0'
aS'0'
aS'0'
aS'0'
asbasg42
g43
sbag1
(g9
g3
NtRp77
(dp78
g12
(dp79
g14
g15
sg16
F100
sg17
F100
sg18
(lp80
F2.2203298316772298e+18
aF-1.4337300240385202
aF1.5430806348152437
aF2.996740765831476
aI0
aF1.4279039171713013
aF223623753.13415691
aF-19.260980574894241
aF1.1534442359694602e+24
aF0.99999999587769273
aF11042.232920103323
aF4051.5420254925939
aI13
aF0
aI10
aF2.592352764293536e+21
aF5.8163792453876901
aF0
aF0
aI0
aF11043.232920103323
aF4.052356840206249e+72
aF1.5430806348152437
aI0
aI0
aI0
aI0
aF1
aI0
aI0
aI0
aF1.5430806348152437
aF1
aI0
aI0
aI0
aI0
aI0
aI0
aI0
aI0
aI0
aI0
aI0
aI0
aI0
aI0
aI0
aI0
aI0
aI0
aI0
aI0
aI0
aI0
aI0
aI0
aI0
aI0
aI0
aI0
aI0
aI0
aI0
aI0
aI0
aI0
aI0
aI0
aI0
aI0
aI0
aI0
aI0
aI0
aI0
aI0
aI0
aI0
aI0
aI0
aI0
aI0
aI0
aI0
aI0
aI0
aI0
aI0
aI0
aI0
aI0
aI0
aI0
aI0
aI0
aI0
aI0
aI0
aI0
aI0
aI0
aI0
aI0
aI0
aI0
aI0
aI0
aI0
aI0
aI0
aI0
aI0
aI0
aI0
aI0
aI0
aI0
aI0
aI0
aI0
aI0
aI0
aI0
aI0
aI0
aI0
aI0
aI0
aI0
aI0
aI0
aI0
aI0
aI0
aI0
aI0
aI0
aI0
aI0
aI0
aI0
aI0
aI0
aI0
aI0
aI0
aI0
aI0
aI0
aI0
aI0
aI0
aI0
aI0
aI0
aI0
aI0
aI0
aI0
aI0
aI0
aI0
aI0
aI0
aI0
aI0
aI0
aI0
aI0
aI0
aI0
aI0
aI0
aI0
aI0
aI0
aI0
aI0
aI0
aI0
aI0
aI0
aI0
aI0
aI0
aI0
aI0
aI0
aI0
aI0
aI0
aI0
aI0
aI0
aI0
aI0
aI0
aI0
aI0
asg20
F0
sg21
I01
sg22
Nsg23
g24
sg25
F100
sg26
S'@Fp%M@G6aZOm93CjnvP@WdTU3&#bLbE?'
p81
sg28
S'Error at Chromosome_0|math range error'
p82
ssg30
Nsg31
I0
sg32
(lp83
g1
(g34
g3
NtRp84
(dp85
g37
F0.10000000000000001
sg38
(lp86
S'0'
aS'1'
asg40
(lp87
S'0'
aS'0'
aS'0'
aS'0'
aS'0'
aS'1'
aS'0'
aS'0'
aS'0'
aS'0'
aS'1'
aS'1'
aS'0'
aS'1'
aS'1'
aS'0'
aS'0'
aS'1'
aS'0'
aS'1'
aS'1'
aS'0'
aS'1'
aS'0'
aS'0'
aS'1'
aS'1'
aS'0'
aS'0'
aS'0'
asbasg42
g43
sbag1
(g9
g3
NtRp88
(dp89
g12
(dp90
g14
g15
sg16
F100
sg17
F100
sg18
(lp91
F1135039707.5300772
aF78.403570854334774
aF167.87857252384407
aF5.8163792453876901
aI0
aF6.0885182450200137e+24
aF-0.4875051820324704
aF0
aF1
aF1
aI0
aF0.61839082841298065
aF11023.232920103323
aF1
aF1.5430806348152437
aI0
aF0
aF0
aF0
aI0
aI0
aI0
aI0
aI0
aI0
aI0
aI0
aI0
aI0
aI0
aI0
aI0
aI0
aI0
aI0
aI0
aI0
aI0
aI0
aI0
aI0
aI0
aI0
aI0
aI0
aI0
aI0
aI0
aI0
aI0
aI0
aI0
aI0
aI0
aI0
aI0
aI0
aI0
aI0
aI0
aI0
aI0
aI0
aI0
aI0
aI0
aI0
aI0
aI0
aI0
aI0
aI0
aI0
aI0
aI0
aI0
aI0
aI0
aI0
aI0
aI0
aI0
aI0
aI0
aI0
aI0
aI0
aI0
aI0
aI0
aI0
aI0
aI0
aI0
aI0
aI0
aI0
aI0
aI0
aI0
aI0
aI0
aI0
aI0
aI0
aI0
aI0
aI0
aI0
aI0
aI0
aI0
aI0
aI0
aI0
aI0
aI0
aI0
aI0
aI0
aI0
aI0
aI0
aI0
aI0
aI0
aI0
aI0
aI0
aI0
aI0
aI0
aI0
aI0
aI0
aI0
aI0
aI0
aI0
aI0
aI0
aI0
aI0
aI0
aI0
aI0
aI0
aI0
aI0
aI0
aI0
aI0
aI0
aI0
aI0
aI0
aI0
aI0
aI0
aI0
aI0
aI0
aI0
aI0
aI0
aI0
aI0
aI0
aI0
aI0
aI0
aI0
aI0
aI0
aI0
aI0
aI0
aI0
aI0
aI0
aI0
aI0
aI0
aI0
aI0
aI0
aI0
aI0
aI0
aI0
aI0
aI0
aI0
aI0
aI0
aI0
aI0
aI0
aI0
aI0
asg20
F0
sg21
I01
sg22
Nsg23
g24
sg25
F100
sg26
S'RivP$X@=jl4jeKMOFOdU$xX3GA=a@nss'
p92
sg28
S'Error at Chromosome_0|math range error'
p93
ssg30
Nsg31
I0
sg32
(lp94
g1
(g34
g3
NtRp95
(dp96
g37
F0.10000000000000001
sg38
(lp97
S'0'
aS'1'
asg40
(lp98
S'1'
aS'0'
aS'0'
aS'0'
aS'0'
aS'1'
aS'1'
aS'0'
aS'1'
aS'1'
aS'1'
aS'1'
aS'1'
aS'1'
aS'1'
aS'1'
aS'1'
aS'1'
aS'0'
aS'1'
aS'0'
aS'1'
aS'0'
aS'0'
aS'0'
aS'1'
aS'0'
aS'0'
aS'0'
aS'0'
asbasg42
g43
sbag1
(g9
g3
NtRp99
(dp100
g12
(dp101
g14
g15
sg16
F100
sg17
F100
sg18
(lp102
F1.8149617108237457e+28
aF44458.027248142156
aF23586.905276244262
aF10.999999999442107
aF4.052356840206249e+72
aF5343237290789.2314
aF432.00981803966653
aF3190.1405819137458
aI10
aI0
aF1.5430806348152437
aF4.052356840206249e+72
aI10
aF1
aI0
aI10
aI0
aF2.4463520074491623
aF1
aI0
aI0
aI0
aI0
aI0
aI0
aI0
aI0
aI0
aI0
aI0
aI0
aI0
aI0
aI0
aI0
aI0
aI0
aI0
aI0
aI0
aI0
aI0
aI0
aI0
aI0
aI0
aI0
aI0
aI0
aI0
aI0
aI0
aI0
aI0
aI0
aI0
aI0
aI0
aI0
aI0
aI0
aI0
aI0
aI0
aI0
aI0
aI0
aI0
aI0
aI0
aI0
aI0
aI0
aI0
aI0
aI0
aI0
aI0
aI0
aI0
aI0
aI0
aI0
aI0
aI0
aI0
aI0
aI0
aI0
aI0
aI0
aI0
aI0
aI0
aI0
aI0
aI0
aI0
aI0
aI0
aI0
aI0
aI0
aI0
aI0
aI0
aI0
aI0
aI0
aI0
aI0
aI0
aI0
aI0
aI0
aI0
aI0
aI0
aI0
aI0
aI0
aI0
aI0
aI0
aI0
aI0
aI0
aI0
aI0
aI0
aI0
aI0
aI0
aI0
aI0
aI0
aI0
aI0
aI0
aI0
aI0
aI0
aI0
aI0
aI0
aI0
aI0
aI0
aI0
aI0
aI0
aI0
aI0
aI0
aI0
aI0
aI0
aI0
aI0
aI0
aI0
aI0
aI0
aI0
aI0
aI0
aI0
aI0
aI0
aI0
aI0
aI0
aI0
aI0
aI0
aI0
aI0
aI0
aI0
aI0
aI0
aI0
aI0
aI0
aI0
aI0
aI0
aI0
aI0
aI0
aI0
aI0
aI0
aI0
aI0
aI0
aI0
aI0
aI0
aI0
asg20
F0
sg21
I01
sg22
Nsg23
g24
sg25
F100
sg26
S'945OyzqIl#E3VBIE63Ko#Rnlz$ZPKg32'
p103
sg28
S'Error at Chromosome_0|math range error'
p104
ssg30
Nsg31
I0
sg32
(lp105
g1
(g34
g3
NtRp106
(dp107
g37
F0.10000000000000001
sg38
(lp108
S'0'
aS'1'
asg40
(lp109
S'0'
aS'0'
aS'0'
aS'0'
aS'1'
aS'1'
aS'1'
aS'1'
aS'1'
aS'1'
aS'0'
aS'0'
aS'1'
aS'0'
aS'0'
aS'0'
aS'0'
aS'1'
aS'1'
aS'0'
aS'1'
aS'1'
aS'1'
aS'1'
aS'1'
aS'0'
aS'0'
aS'0'
aS'0'
aS'0'
asbasg42
g43
sbag1
(g9
g3
NtRp110
(dp111
g12
(dp112
g14
g15
sg16
F100
sg17
F100
sg18
(lp113
F33939.852673877605
aF607872419.02092671
aF1.3440585709080678e+43
aF-0.45691936518475629
aI-5
aF19.999999999442107
aF1.0831656746752181
aF1.9782433465861597
aF5343237290762.2314
aF1
aF29947.070848743188
aF20.845783219218468
aF11013.232920103323
aF2.4463520074491623
aF1.5430806348152437
aI0
aF21.543080634815244
aF1
aF1
aI0
aI0
aI0
aI0
aI0
aI0
aI0
aI0
aI0
aI0
aI0
aI0
aI0
aI0
aI0
aI0
aI0
aI0
aI0
aI0
aI0
aI0
aI0
aI0
aI0
aI0
aI0
aI0
aI0
aI0
aI0
aI0
aI0
aI0
aI0
aI0
aI0
aI0
aI0
aI0
aI0
aI0
aI0
aI0
aI0
aI0
aI0
aI0
aI0
aI0
aI0
aI0
aI0
aI0
aI0
aI0
aI0
aI0
aI0
aI0
aI0
aI0
aI0
aI0
aI0
aI0
aI0
aI0
aI0
aI0
aI0
aI0
aI0
aI0
aI0
aI0
aI0
aI0
aI0
aI0
aI0
aI0
aI0
aI0
aI0
aI0
aI0
aI0
aI0
aI0
aI0
aI0
aI0
aI0
aI0
aI0
aI0
aI0
aI0
aI0
aI0
aI0
aI0
aI0
aI0
aI0
aI0
aI0
aI0
aI0
aI0
aI0
aI0
aI0
aI0
aI0
aI0
aI0
aI0
aI0
aI0
aI0
aI0
aI0
aI0
aI0
aI0
aI0
aI0
aI0
aI0
aI0
aI0
aI0
aI0
aI0
aI0
aI0
aI0
aI0
aI0
aI0
aI0
aI0
aI0
aI0
aI0
aI0
aI0
aI0
aI0
aI0
aI0
aI0
aI0
aI0
aI0
aI0
aI0
aI0
aI0
aI0
aI0
aI0
aI0
aI0
aI0
aI0
aI0
aI0
aI0
aI0
aI0
aI0
aI0
aI0
aI0
aI0
aI0
aI0
aI0
asg20
F0
sg21
I01
sg22
Nsg23
g24
sg25
F100
sg26
S'r7BJcdb6=w?ANl3?Km%SoQV3pwnvvYsc'
p114
sg28
S'Error at Chromosome_0|math range error'
p115
ssg30
Nsg31
I0
sg32
(lp116
g1
(g34
g3
NtRp117
(dp118
g37
F0.10000000000000001
sg38
(lp119
S'0'
aS'1'
asg40
(lp120
S'0'
aS'1'
aS'0'
aS'1'
aS'0'
aS'0'
aS'1'
aS'0'
aS'0'
aS'1'
aS'0'
aS'0'
aS'1'
aS'1'
aS'1'
aS'1'
aS'0'
aS'1'
aS'1'
aS'0'
aS'0'
aS'0'
aS'0'
aS'0'
aS'0'
aS'1'
aS'0'
aS'0'
aS'0'
aS'0'
asbasg42
g43
sbag1
(g9
g3
NtRp121
(dp122
g12
(dp123
g14
g15
sg16
F100
sg17
F100
sg18
(lp124
F183.76159415595578
aF5859571007919015
aF2.3494333724980243
aI0
aF1.5430806348152437
aF17.535602024909597
aF10.471979915996284
aF242582607.70489514
aF51540.722096349724
aI0
aF25.889998402011116
aF223623761.13415691
aF4.052356840206249e+72
aF1.5430806348152437
aF1
aF20
aF4.052356840206249e+72
aI0
aI0
aI0
aI0
aI0
aI0
aI0
aI0
aI0
aI0
aI0
aI0
aI0
aI0
aI0
aI0
aI0
aI0
aI0
aI0
aI0
aI0
aI0
aI0
aI0
aI0
aI0
aI0
aI0
aI0
aI0
aI0
aI0
aI0
aI0
aI0
aI0
aI0
aI0
aI0
aI0
aI0
aI0
aI0
aI0
aI0
aI0
aI0
aI0
aI0
aI0
aI0
aI0
aI0
aI0
aI0
aI0
aI0
aI0
aI0
aI0
aI0
aI0
aI0
aI0
aI0
aI0
aI0
aI0
aI0
aI0
aI0
aI0
aI0
aI0
aI0
aI0
aI0
aI0
aI0
aI0
aI0
aI0
aI0
aI0
aI0
aI0
aI0
aI0
aI0
aI0
aI0
aI0
aI0
aI0
aI0
aI0
aI0
aI0
aI0
aI0
aI0
aI0
aI0
aI0
aI0
aI0
aI0
aI0
aI0
aI0
aI0
aI0
aI0
aI0
aI0
aI0
aI0
aI0
aI0
aI0
aI0
aI0
aI0
aI0
aI0
aI0
aI0
aI0
aI0
aI0
aI0
aI0
aI0
aI0
aI0
aI0
aI0
aI0
aI0
aI0
aI0
aI0
aI0
aI0
aI0
aI0
aI0
aI0
aI0
aI0
aI0
aI0
aI0
aI0
aI0
aI0
aI0
aI0
aI0
aI0
aI0
aI0
aI0
aI0
aI0
aI0
aI0
aI0
aI0
aI0
aI0
aI0
aI0
aI0
aI0
aI0
aI0
aI0
aI0
aI0
aI0
aI0
asg20
F0
sg21
I01
sg22
Nsg23
g24
sg25
F100
sg26
S'DI87NWxUt=rhX>6gDdAKqBCZ3x>wwYyo'
p125
sg28
S'Error at Chromosome_0|math range error'
p126
ssg30
Nsg31
I0
sg32
(lp127
g1
(g34
g3
NtRp128
(dp129
g37
F0.10000000000000001
sg38
(lp130
S'0'
aS'1'
asg40
(lp131
S'0'
aS'1'
aS'1'
aS'0'
aS'0'
aS'0'
aS'0'
aS'1'
aS'0'
aS'0'
aS'0'
aS'0'
aS'1'
aS'0'
aS'0'
aS'1'
aS'0'
aS'0'
aS'0'
aS'0'
aS'1'
aS'0'
aS'1'
aS'0'
aS'0'
aS'0'
aS'1'
aS'0'
aS'0'
aS'0'
asbasg42
g43
sbag1
(g9
g3
NtRp132
(dp133
g12
(dp134
g14
g15
sg16
F100
sg17
F100
sg18
(lp135
F30127.070865949761
aF29957.07084924807
aI0
aI0
aF1.5430806348152437
aF11
aF659407877.24160731
aF4.052356840206249e+72
aF1
aI0
aF2.3989066636496511e+51
aF1.4193043282740825
aF4.052356840206249e+72
aI0
aI0
aF4.052356840206249e+72
aI40
aF11023.232920103323
aF1.5430806348152437
aF1.5430806348152437
aI0
aI0
aI0
aI0
aI0
aI0
aI0
aI0
aI0
aI0
aI0
aI0
aI0
aI0
aI0
aI0
aI0
aI0
aI0
aI0
aI0
aI0
aI0
aI0
aI0
aI0
aI0
aI0
aI0
aI0
aI0
aI0
aI0
aI0
aI0
aI0
aI0
aI0
aI0
aI0
aI0
aI0
aI0
aI0
aI0
aI0
aI0
aI0
aI0
aI0
aI0
aI0
aI0
aI0
aI0
aI0
aI0
aI0
aI0
aI0
aI0
aI0
aI0
aI0
aI0
aI0
aI0
aI0
aI0
aI0
aI0
aI0
aI0
aI0
aI0
aI0
aI0
aI0
aI0
aI0
aI0
aI0
aI0
aI0
aI0
aI0
aI0
aI0
aI0
aI0
aI0
aI0
aI0
aI0
aI0
aI0
aI0
aI0
aI0
aI0
aI0
aI0
aI0
aI0
aI0
aI0
aI0
aI0
aI0
aI0
aI0
aI0
aI0
aI0
aI0
aI0
aI0
aI0
aI0
aI0
aI0
aI0
aI0
aI0
aI0
aI0
aI0
aI0
aI0
aI0
aI0
aI0
aI0
aI0
aI0
aI0
aI0
aI0
aI0
aI0
aI0
aI0
aI0
aI0
aI0
aI0
aI0
aI0
aI0
aI0
aI0
aI0
aI0
aI0
aI0
aI0
aI0
aI0
aI0
aI0
aI0
aI0
aI0
aI0
aI0
aI0
aI0
aI0
aI0
aI0
aI0
aI0
aI0
aI0
aI0
aI0
aI0
aI0
aI0
aI0
asg20
F0
sg21
I01
sg22
Nsg23
g24
sg25
F100
sg26
S'DsA@hz#28J<dJBzxZdwFpZy7S%vN<=>W'
p136
sg28
S'Error at Chromosome_0|math range error'
p137
ssg30
Nsg31
I0
sg32
(lp138
g1
(g34
g3
NtRp139
(dp140
g37
F0.10000000000000001
sg38
(lp141
S'0'
aS'1'
asg40
(lp142
S'0'
aS'0'
aS'0'
aS'1'
aS'1'
aS'0'
aS'1'
aS'0'
aS'0'
aS'1'
aS'0'
aS'0'
aS'1'
aS'0'
aS'0'
aS'0'
aS'0'
aS'1'
aS'0'
aS'0'
aS'0'
aS'0'
aS'1'
aS'0'
aS'1'
aS'0'
aS'1'
aS'0'
aS'0'
aS'0'
asbasg42
g43
sbag1
(g9
g3
NtRp143
(dp144
g12
(dp145
g14
g15
sg16
F100
sg17
F100
sg18
(lp146
F10.356250167332625
aF1.1769263341851e+17
aI-3
aI64
aF1
aF0.76159415595576485
aF23863.28999964043
aF1.0038186117572763
aF1.5430806348152437
aI0
aF1.3959093421023823
aF1.8748903688332885
aF0.91263657596321157
aI0
aI0
aF8.9259099329153967e+76
aI0
aI0
aI0
aI0
aF1
aI0
aI0
aI0
aI0
aI0
aI0
aI0
aI0
aI0
aI0
aI0
aI0
aI0
aI0
aI0
aI0
aI0
aI0
aI0
aI0
aI0
aI0
aI0
aI0
aI0
aI0
aI0
aI0
aI0
aI0
aI0
aI0
aI0
aI0
aI0
aI0
aI0
aI0
aI0
aI0
aI0
aI0
aI0
aI0
aI0
aI0
aI0
aI0
aI0
aI0
aI0
aI0
aI0
aI0
aI0
aI0
aI0
aI0
aI0
aI0
aI0
aI0
aI0
aI0
aI0
aI0
aI0
aI0
aI0
aI0
aI0
aI0
aI0
aI0
aI0
aI0
aI0
aI0
aI0
aI0
aI0
aI0
aI0
aI0
aI0
aI0
aI0
aI0
aI0
aI0
aI0
aI0
aI0
aI0
aI0
aI0
aI0
aI0
aI0
aI0
aI0
aI0
aI0
aI0
aI0
aI0
aI0
aI0
aI0
aI0
aI0
aI0
aI0
aI0
aI0
aI0
aI0
aI0
aI0
aI0
aI0
aI0
aI0
aI0
aI0
aI0
aI0
aI0
aI0
aI0
aI0
aI0
aI0
aI0
aI0
aI0
aI0
aI0
aI0
aI0
aI0
aI0
aI0
aI0
aI0
aI0
aI0
aI0
aI0
aI0
aI0
aI0
aI0
aI0
aI0
aI0
aI0
aI0
aI0
aI0
aI0
aI0
aI0
aI0
aI0
aI0
aI0
aI0
aI0
aI0
aI0
aI0
aI0
aI0
aI0
aI0
aI0
aI0
aI0
asg20
F0
sg21
I01
sg22
Nsg23
g24
sg25
F100
sg26
S's65HIRZNrg>JK=L3QmtWZP5eeugVZi2u'
p147
sg28
S'Error at Chromosome_0|math range error'
p148
ssg30
Nsg31
I0
sg32
(lp149
g1
(g34
g3
NtRp150
(dp151
g37
F0.10000000000000001
sg38
(lp152
S'0'
aS'1'
asg40
(lp153
S'1'
aS'1'
aS'1'
aS'1'
aS'0'
aS'1'
aS'0'
aS'1'
aS'0'
aS'0'
aS'0'
aS'0'
aS'1'
aS'1'
aS'1'
aS'1'
aS'1'
aS'1'
aS'0'
aS'0'
aS'1'
aS'0'
aS'1'
aS'1'
aS'0'
aS'0'
aS'0'
aS'1'
aS'0'
aS'0'
asbasg42
g43
sbag1
(g9
g3
NtRp154
(dp155
g12
(dp156
g14
g15
sg16
F100
sg17
F100
sg18
(lp157
F1.8914954017159284
aF-2.6394833723831135
aF174283.9661436668
aF152923682528.38345
aI20
aF-0.46766810015878413
aF659407887.24160731
aF5.8163787874614457
aF0
aI0
aF46779.709350461126
aF5.8163792453876901
aF0
aI0
aI0
aI0
aF2.4463520074491623
aI0
aI0
aI0
aI0
aI0
aI0
aI0
aI0
aI0
aI0
aI0
aI0
aI0
aI0
aI0
aI0
aI0
aI0
aI0
aI0
aI0
aI0
aI0
aI0
aI0
aI0
aI0
aI0
aI0
aI0
aI0
aI0
aI0
aI0
aI0
aI0
aI0
aI0
aI0
aI0
aI0
aI0
aI0
aI0
aI0
aI0
aI0
aI0
aI0
aI0
aI0
aI0
aI0
aI0
aI0
aI0
aI0
aI0
aI0
aI0
aI0
aI0
aI0
aI0
aI0
aI0
aI0
aI0
aI0
aI0
aI0
aI0
aI0
aI0
aI0
aI0
aI0
aI0
aI0
aI0
aI0
aI0
aI0
aI0
aI0
aI0
aI0
aI0
aI0
aI0
aI0
aI0
aI0
aI0
aI0
aI0
aI0
aI0
aI0
aI0
aI0
aI0
aI0
aI0
aI0
aI0
aI0
aI0
aI0
aI0
aI0
aI0
aI0
aI0
aI0
aI0
aI0
aI0
aI0
aI0
aI0
aI0
aI0
aI0
aI0
aI0
aI0
aI0
aI0
aI0
aI0
aI0
aI0
aI0
aI0
aI0
aI0
aI0
aI0
aI0
aI0
aI0
aI0
aI0
aI0
aI0
aI0
aI0
aI0
aI0
aI0
aI0
aI0
aI0
aI0
aI0
aI0
aI0
aI0
aI0
aI0
aI0
aI0
aI0
aI0
aI0
aI0
aI0
aI0
aI0
aI0
aI0
aI0
aI0
aI0
aI0
aI0
aI0
aI0
aI0
aI0
aI0
aI0
asg20
F0
sg21
I01
sg22
Nsg23
g24
sg25
F100
sg26
S'nG9ZK$aSl3FI8bTxZCl?MgcFybktwYJQ'
p158
sg28
S'Error at Chromosome_0|math range error'
p159
ssg30
Nsg31
I0
sg32
(lp160
g1
(g34
g3
NtRp161
(dp162
g37
F0.10000000000000001
sg38
(lp163
S'0'
aS'1'
asg40
(lp164
S'1'
aS'0'
aS'0'
aS'0'
aS'0'
aS'0'
aS'1'
aS'0'
aS'1'
aS'0'
aS'0'
aS'1'
aS'1'
aS'0'
aS'1'
aS'0'
aS'1'
aS'1'
aS'0'
aS'0'
aS'1'
aS'0'
aS'0'
aS'0'
aS'0'
aS'0'
aS'1'
aS'1'
aS'0'
aS'0'
asbasg42
g43
sbag1
(g9
g3
NtRp165
(dp166
g12
(dp167
g14
g15
sg16
F100
sg17
F100
sg18
(lp168
F29963.070865949761
aF0.99999999944210638
aF0
aI0
aI0
aF4.1590558977680541
aF0.47197991599628375
aI0
aI0
aI0
aF0.42983710523922697
aF34848.133167617205
aI10
aI40
aI0
aF1.6193933206357425
aI0
aI10
aI0
aI0
aF-0.74254354732885219
aI0
aI0
aI0
aI0
aI0
aI0
aI0
aI0
aI0
aI0
aI0
aI0
aI0
aI0
aI0
aI0
aI0
aI0
aI0
aI0
aI0
aI0
aI0
aI0
aI0
aI0
aI0
aI0
aI0
aI0
aI0
aI0
aI0
aI0
aI0
aI0
aI0
aI0
aI0
aI0
aI0
aI0
aI0
aI0
aI0
aI0
aI0
aI0
aI0
aI0
aI0
aI0
aI0
aI0
aI0
aI0
aI0
aI0
aI0
aI0
aI0
aI0
aI0
aI0
aI0
aI0
aI0
aI0
aI0
aI0
aI0
aI0
aI0
aI0
aI0
aI0
aI0
aI0
aI0
aI0
aI0
aI0
aI0
aI0
aI0
aI0
aI0
aI0
aI0
aI0
aI0
aI0
aI0
aI0
aI0
aI0
aI0
aI0
aI0
aI0
aI0
aI0
aI0
aI0
aI0
aI0
aI0
aI0
aI0
aI0
aI0
aI0
aI0
aI0
aI0
aI0
aI0
aI0
aI0
aI0
aI0
aI0
aI0
aI0
aI0
aI0
aI0
aI0
aI0
aI0
aI0
aI0
aI0
aI0
aI0
aI0
aI0
aI0
aI0
aI0
aI0
aI0
aI0
aI0
aI0
aI0
aI0
aI0
aI0
aI0
aI0
aI0
aI0
aI0
aI0
aI0
aI0
aI0
aI0
aI0
aI0
aI0
aI0
aI0
aI0
aI0
aI0
aI0
aI0
aI0
aI0
aI0
aI0
aI0
aI0
aI0
aI0
aI0
aI0
asg20
F0
sg21
I01
sg22
Nsg23
g24
sg25
F100
sg26
S'k4VcLvK1Ss%xAyMts##J<671WZaIYHrf'
p169
sg28
S'Error at Chromosome_0|math range error'
p170
ssg30
Nsg31
I0
sg32
(lp171
g1
(g34
g3
NtRp172
(dp173
g37
F0.10000000000000001
sg38
(lp174
S'0'
aS'1'
asg40
(lp175
S'0'
aS'1'
aS'1'
aS'1'
aS'0'
aS'0'
aS'0'
aS'0'
aS'1'
aS'1'
aS'0'
aS'0'
aS'0'
aS'0'
aS'0'
aS'0'
aS'1'
aS'1'
aS'1'
aS'0'
aS'0'
aS'1'
aS'1'
aS'0'
aS'1'
aS'1'
aS'1'
aS'1'
aS'0'
aS'0'
asbasg42
g43
sbag1
(g9
g3
NtRp176
(dp177
g12
(dp178
g14
g15
sg16
F100
sg17
F100
sg18
(lp179
F-10.306378136982339
aF-0.23840584404423515
aF0.76159415595576485
aI-1
aI0
aF-0.69058665245426121
aF29937.070865949761
aI-1
aI0
aI0
aF-0.23681486632054749
aF4071.9496123363974
aF29937.070865949761
aI0
aI0
aI0
aI0
aF2.4463520074491623
aF1
aI0
aI0
aI0
aI0
aI0
aI0
aI0
aI0
aI0
aI0
aI0
aI0
aI0
aI0
aI0
aI0
aI0
aI0
aI0
aI0
aI0
aI0
aI0
aI0
aI0
aI0
aI0
aI0
aI0
aI0
aI0
aI0
aI0
aI0
aI0
aI0
aI0
aI0
aI0
aI0
aI0
aI0
aI0
aI0
aI0
aI0
aI0
aI0
aI0
aI0
aI0
aI0
aI0
aI0
aI0
aI0
aI0
aI0
aI0
aI0
aI0
aI0
aI0
aI0
aI0
aI0
aI0
aI0
aI0
aI0
aI0
aI0
aI0
aI0
aI0
aI0
aI0
aI0
aI0
aI0
aI0
aI0
aI0
aI0
aI0
aI0
aI0
aI0
aI0
aI0
aI0
aI0
aI0
aI0
aI0
aI0
aI0
aI0
aI0
aI0
aI0
aI0
aI0
aI0
aI0
aI0
aI0
aI0
aI0
aI0
aI0
aI0
aI0
aI0
aI0
aI0
aI0
aI0
aI0
aI0
aI0
aI0
aI0
aI0
aI0
aI0
aI0
aI0
aI0
aI0
aI0
aI0
aI0
aI0
aI0
aI0
aI0
aI0
aI0
aI0
aI0
aI0
aI0
aI0
aI0
aI0
aI0
aI0
aI0
aI0
aI0
aI0
aI0
aI0
aI0
aI0
aI0
aI0
aI0
aI0
aI0
aI0
aI0
aI0
aI0
aI0
aI0
aI0
aI0
aI0
aI0
aI0
aI0
aI0
aI0
aI0
aI0
aI0
aI0
aI0
aI0
asg20
F0
sg21
I01
sg22
Nsg23
g24
sg25
F100
sg26
S'fTLcB6XNoG7RUu#x=kU=>mSm$tBJ5Z@W'
p180
sg28
S'Error at Chromosome_0|math range error'
p181
ssg30
Nsg31
I0
sg32
(lp182
g1
(g34
g3
NtRp183
(dp184
g37
F0.10000000000000001
sg38
(lp185
S'0'
aS'1'
asg40
(lp186
S'0'
aS'1'
aS'1'
aS'0'
aS'0'
aS'1'
aS'1'
aS'1'
aS'1'
aS'0'
aS'1'
aS'1'
aS'0'
aS'0'
aS'0'
aS'1'
aS'0'
aS'0'
aS'0'
aS'1'
aS'0'
aS'1'
aS'1'
aS'0'
aS'1'
aS'0'
aS'0'
aS'0'
aS'0'
aS'0'
asbasg42
g43
sbag1
(g9
g3
NtRp187
(dp188
g12
(dp189
g14
g15
sg16
F100
sg17
F100
sg18
(lp190
F0.99999999885845448
aF0.34190681358295971
aF0.41347670990383567
aF6199.4902698023125
aI0
aF48
aF0.76159415595576485
aF2.4463520074491623
aF2.4463520074491623
aI0
aF0.64201499099433423
aF-0.39142072274619327
aF0.64201499201199974
aF1.5430806348152437
aI0
aF1.5430806348152437
aF1.3043045862358962
aF2.4463520074491623
aF0
aI0
aI0
aF1.5430806348152437
aI0
aI0
aI0
aI0
aI0
aI0
aI0
aI0
aI0
aI0
aI0
aI0
aI0
aI0
aI0
aI0
aI0
aI0
aI0
aI0
aI0
aI0
aI0
aI0
aI0
aI0
aI0
aI0
aI0
aI0
aI0
aI0
aI0
aI0
aI0
aI0
aI0
aI0
aI0
aI0
aI0
aI0
aI0
aI0
aI0
aI0
aI0
aI0
aI0
aI0
aI0
aI0
aI0
aI0
aI0
aI0
aI0
aI0
aI0
aI0
aI0
aI0
aI0
aI0
aI0
aI0
aI0
aI0
aI0
aI0
aI0
aI0
aI0
aI0
aI0
aI0
aI0
aI0
aI0
aI0
aI0
aI0
aI0
aI0
aI0
aI0
aI0
aI0
aI0
aI0
aI0
aI0
aI0
aI0
aI0
aI0
aI0
aI0
aI0
aI0
aI0
aI0
aI0
aI0
aI0
aI0
aI0
aI0
aI0
aI0
aI0
aI0
aI0
aI0
aI0
aI0
aI0
aI0
aI0
aI0
aI0
aI0
aI0
aI0
aI0
aI0
aI0
aI0
aI0
aI0
aI0
aI0
aI0
aI0
aI0
aI0
aI0
aI0
aI0
aI0
aI0
aI0
aI0
aI0
aI0
aI0
aI0
aI0
aI0
aI0
aI0
aI0
aI0
aI0
aI0
aI0
aI0
aI0
aI0
aI0
aI0
aI0
aI0
aI0
aI0
aI0
aI0
aI0
aI0
aI0
aI0
aI0
aI0
aI0
aI0
aI0
aI0
aI0
asg20
F0
sg21
I01
sg22
Nsg23
g24
sg25
F100
sg26
S'e=e8o?O=DGRAWAuOoaZvlrJ7OD7#yDwV'
p191
sg28
S'Error at Chromosome_0|math range error'
p192
ssg30
Nsg31
I0
sg32
(lp193
g1
(g34
g3
NtRp194
(dp195
g37
F0.10000000000000001
sg38
(lp196
S'0'
aS'1'
asg40
(lp197
S'0'
aS'0'
aS'0'
aS'0'
aS'0'
aS'1'
aS'0'
aS'0'
aS'1'
aS'1'
aS'1'
aS'0'
aS'1'
aS'0'
aS'1'
aS'0'
aS'0'
aS'1'
aS'0'
aS'0'
aS'1'
aS'0'
aS'0'
aS'0'
aS'0'
aS'0'
aS'0'
aS'0'
aS'0'
aS'0'
asbasg42
g43
sbag1
(g9
g3
NtRp198
(dp199
g12
(dp200
g14
g15
sg16
F100
sg17
F100
sg18
(lp201
F-1.5568942616013659
aF4095812.0741894674
aF1
aF-0.96135307037101481
aF2.592352764293536e+21
aF-14.99204556964718
aF4.1075836943518606e+251
aF1.5430806348152437
aF1
aI10
aF60
aF8.9259099329153967e+76
aF4.052356840206249e+72
aF1.3043045862358962
aF11013.232920103323
aF20928.513951235509
aF1
aI0
aI0
aI0
aI0
aI0
aI0
aI0
aI0
aI0
aI0
aI0
aI0
aI0
aI0
aI0
aI0
aI0
aI0
aI0
aI0
aI0
aI0
aI0
aI0
aI0
aI0
aI0
aI0
aI0
aI0
aI0
aI0
aI0
aI0
aI0
aI0
aI0
aI0
aI0
aI0
aI0
aI0
aI0
aI0
aI0
aI0
aI0
aI0
aI0
aI0
aI0
aI0
aI0
aI0
aI0
aI0
aI0
aI0
aI0
aI0
aI0
aI0
aI0
aI0
aI0
aI0
aI0
aI0
aI0
aI0
aI0
aI0
aI0
aI0
aI0
aI0
aI0
aI0
aI0
aI0
aI0
aI0
aI0
aI0
aI0
aI0
aI0
aI0
aI0
aI0
aI0
aI0
aI0
aI0
aI0
aI0
aI0
aI0
aI0
aI0
aI0
aI0
aI0
aI0
aI0
aI0
aI0
aI0
aI0
aI0
aI0
aI0
aI0
aI0
aI0
aI0
aI0
aI0
aI0
aI0
aI0
aI0
aI0
aI0
aI0
aI0
aI0
aI0
aI0
aI0
aI0
aI0
aI0
aI0
aI0
aI0
aI0
aI0
aI0
aI0
aI0
aI0
aI0
aI0
aI0
aI0
aI0
aI0
aI0
aI0
aI0
aI0
aI0
aI0
aI0
aI0
aI0
aI0
aI0
aI0
aI0
aI0
aI0
aI0
aI0
aI0
aI0
aI0
aI0
aI0
aI0
aI0
aI0
aI0
aI0
aI0
aI0
aI0
aI0
aI0
aI0
aI0
aI0
asg20
F0
sg21
I01
sg22
Nsg23
g24
sg25
F100
sg26
S'?45=<4O2AdSkc#vW=ufSzPbunKs2p@>&'
p202
sg28
S'Error at Chromosome_0|math range error'
p203
ssg30
Nsg31
I0
sg32
(lp204
g1
(g34
g3
NtRp205
(dp206
g37
F0.10000000000000001
sg38
(lp207
S'0'
aS'1'
asg40
(lp208
S'0'
aS'1'
aS'1'
aS'1'
aS'1'
aS'1'
aS'1'
aS'1'
aS'1'
aS'0'
aS'1'
aS'1'
aS'0'
aS'1'
aS'1'
aS'0'
aS'0'
aS'0'
aS'1'
aS'1'
aS'1'
aS'0'
aS'1'
aS'1'
aS'1'
aS'0'
aS'0'
aS'1'
aS'0'
aS'0'
asbasg42
g43
sbag1
(g9
g3
NtRp209
(dp210
g12
(dp211
g14
g15
sg16
F100
sg17
F100
sg18
(lp212
F29946.070865949761
aF11
aF200.4498961503447
aF1
aI0
aF11
aF10
aF2.7239043677529788
aI0
aI0
aF11036.232920103323
aF21.304304586235894
aF6199.4902698023125
aI0
aI0
aF-3
aF1.3959093421023823
aF370226909.11868507
aI0
aI0
aI0
aI0
aI0
aI0
aI0
aI0
aI0
aI0
aI0
aI0
aI0
aI0
aI0
aI0
aI0
aI0
aI0
aI0
aI0
aI0
aI0
aI0
aI0
aI0
aI0
aI0
aI0
aI0
aI0
aI0
aI0
aI0
aI0
aI0
aI0
aI0
aI0
aI0
aI0
aI0
aI0
aI0
aI0
aI0
aI0
aI0
aI0
aI0
aI0
aI0
aI0
aI0
aI0
aI0
aI0
aI0
aI0
aI0
aI0
aI0
aI0
aI0
aI0
aI0
aI0
aI0
aI0
aI0
aI0
aI0
aI0
aI0
aI0
aI0
aI0
aI0
aI0
aI0
aI0
aI0
aI0
aI0
aI0
aI0
aI0
aI0
aI0
aI0
aI0
aI0
aI0
aI0
aI0
aI0
aI0
aI0
aI0
aI0
aI0
aI0
aI0
aI0
aI0
aI0
aI0
aI0
aI0
aI0
aI0
aI0
aI0
aI0
aI0
aI0
aI0
aI0
aI0
aI0
aI0
aI0
aI0
aI0
aI0
aI0
aI0
aI0
aI0
aI0
aI0
aI0
aI0
aI0
aI0
aI0
aI0
aI0
aI0
aI0
aI0
aI0
aI0
aI0
aI0
aI0
aI0
aI0
aI0
aI0
aI0
aI0
aI0
aI0
aI0
aI0
aI0
aI0
aI0
aI0
aI0
aI0
aI0
aI0
aI0
aI0
aI0
aI0
aI0
aI0
aI0
aI0
aI0
aI0
aI0
aI0
aI0
aI0
aI0
aI0
aI0
aI0
asg20
F0
sg21
I01
sg22
Nsg23
g24
sg25
F100
sg26
S'po>3kh$x6RYt@XZGI3eLWzfV>N9rbUDy'
p213
sg28
S'Error at Chromosome_0|math range error'
p214
ssg30
Nsg31
I0
sg32
(lp215
g1
(g34
g3
NtRp216
(dp217
g37
F0.10000000000000001
sg38
(lp218
S'0'
aS'1'
asg40
(lp219
S'1'
aS'0'
aS'0'
aS'0'
aS'1'
aS'1'
aS'0'
aS'1'
aS'1'
aS'0'
aS'1'
aS'0'
aS'0'
aS'0'
aS'1'
aS'1'
aS'1'
aS'1'
aS'0'
aS'1'
aS'1'
aS'0'
aS'0'
aS'1'
aS'1'
aS'1'
aS'1'
aS'1'
aS'0'
aS'0'
asbasg42
g43
sbag1
(g9
g3
NtRp220
(dp221
g12
(dp222
g14
g15
sg16
F100
sg17
F100
sg18
(lp223
F-1.9611797513638329
aF0.76159415595576485
aF1.4241451611524267
aI0
aF1
aF2.4080282775358159
aF1
aF5.8163792307746016
aF4.052356840206249e+72
aI0
aF8.2526540372795781e+18
aF1.5430806348152437
aF4.052356840206249e+72
aF1.5430806348152437
aF1
aF2800894943.7252998
aF4051.5420254925939
aF1
aI0
aI0
aI0
aI0
aI0
aI0
aI0
aI0
aI0
aI0
aI0
aI0
aI0
aI0
aI0
aI0
aI0
aI0
aI0
aI0
aI0
aI0
aI0
aI0
aI0
aI0
aI0
aI0
aI0
aI0
aI0
aI0
aI0
aI0
aI0
aI0
aI0
aI0
aI0
aI0
aI0
aI0
aI0
aI0
aI0
aI0
aI0
aI0
aI0
aI0
aI0
aI0
aI0
aI0
aI0
aI0
aI0
aI0
aI0
aI0
aI0
aI0
aI0
aI0
aI0
aI0
aI0
aI0
aI0
aI0
aI0
aI0
aI0
aI0
aI0
aI0
aI0
aI0
aI0
aI0
aI0
aI0
aI0
aI0
aI0
aI0
aI0
aI0
aI0
aI0
aI0
aI0
aI0
aI0
aI0
aI0
aI0
aI0
aI0
aI0
aI0
aI0
aI0
aI0
aI0
aI0
aI0
aI0
aI0
aI0
aI0
aI0
aI0
aI0
aI0
aI0
aI0
aI0
aI0
aI0
aI0
aI0
aI0
aI0
aI0
aI0
aI0
aI0
aI0
aI0
aI0
aI0
aI0
aI0
aI0
aI0
aI0
aI0
aI0
aI0
aI0
aI0
aI0
aI0
aI0
aI0
aI0
aI0
aI0
aI0
aI0
aI0
aI0
aI0
aI0
aI0
aI0
aI0
aI0
aI0
aI0
aI0
aI0
aI0
aI0
aI0
aI0
aI0
aI0
aI0
aI0
aI0
aI0
aI0
aI0
aI0
aI0
aI0
aI0
aI0
aI0
aI0
asg20
F0
sg21
I01
sg22
Nsg23
g24
sg25
F100
sg26
S'hy>TRXAO7FLEPzEhi9sx9WyO%Pv@5>9K'
p224
sg28
S'Error at Chromosome_0|math range error'
p225
ssg30
Nsg31
I0
sg32
(lp226
g1
(g34
g3
NtRp227
(dp228
g37
F0.10000000000000001
sg38
(lp229
S'0'
aS'1'
asg40
(lp230
S'1'
aS'1'
aS'0'
aS'1'
aS'0'
aS'1'
aS'0'
aS'1'
aS'1'
aS'0'
aS'0'
aS'0'
aS'1'
aS'0'
aS'1'
aS'0'
aS'0'
aS'0'
aS'0'
aS'0'
aS'1'
aS'1'
aS'1'
aS'1'
aS'1'
aS'0'
aS'0'
aS'1'
aS'0'
aS'0'
asbasg42
g43
sbag1
(g9
g3
NtRp231
(dp232
g12
(dp233
g14
g15
sg16
F100
sg17
F100
sg18
(lp234
F659407887.24160731
aF3450.2367882485287
aF920665043076.36414
aF11
aF1
aF0.54628305322950477
aF30281.568246573173
aF5343237290762.2314
aI30
aI0
aF1.1769263341851e+17
aF0.37258437431195923
aI20
aI30
aI20
aI10
aI0
aI0
aI0
aI0
aI0
aI0
aI0
aI0
aI0
aI0
aI0
aI0
aI0
aI0
aI0
aI0
aI0
aI0
aI0
aI0
aI0
aI0
aI0
aI0
aI0
aI0
aI0
aI0
aI0
aI0
aI0
aI0
aI0
aI0
aI0
aI0
aI0
aI0
aI0
aI0
aI0
aI0
aI0
aI0
aI0
aI0
aI0
aI0
aI0
aI0
aI0
aI0
aI0
aI0
aI0
aI0
aI0
aI0
aI0
aI0
aI0
aI0
aI0
aI0
aI0
aI0
aI0
aI0
aI0
aI0
aI0
aI0
aI0
aI0
aI0
aI0
aI0
aI0
aI0
aI0
aI0
aI0
aI0
aI0
aI0
aI0
aI0
aI0
aI0
aI0
aI0
aI0
aI0
aI0
aI0
aI0
aI0
aI0
aI0
aI0
aI0
aI0
aI0
aI0
aI0
aI0
aI0
aI0
aI0
aI0
aI0
aI0
aI0
aI0
aI0
aI0
aI0
aI0
aI0
aI0
aI0
aI0
aI0
aI0
aI0
aI0
aI0
aI0
aI0
aI0
aI0
aI0
aI0
aI0
aI0
aI0
aI0
aI0
aI0
aI0
aI0
aI0
aI0
aI0
aI0
aI0
aI0
aI0
aI0
aI0
aI0
aI0
aI0
aI0
aI0
aI0
aI0
aI0
aI0
aI0
aI0
aI0
aI0
aI0
aI0
aI0
aI0
aI0
aI0
aI0
aI0
aI0
aI0
aI0
aI0
aI0
aI0
aI0
aI0
aI0
aI0
aI0
aI0
aI0
asg20
F0
sg21
I01
sg22
Nsg23
g24
sg25
F100
sg26
S'q4fcb2mfcCLI64ZR$Ej6N$kC9RZ?9>hO'
p235
sg28
S'Error at Chromosome_0|math range error'
p236
ssg30
Nsg31
I0
sg32
(lp237
g1
(g34
g3
NtRp238
(dp239
g37
F0.10000000000000001
sg38
(lp240
S'0'
aS'1'
asg40
(lp241
S'0'
aS'0'
aS'0'
aS'1'
aS'1'
aS'0'
aS'1'
aS'0'
aS'0'
aS'1'
aS'1'
aS'0'
aS'0'
aS'1'
aS'1'
aS'0'
aS'1'
aS'1'
aS'0'
aS'0'
aS'1'
aS'0'
aS'0'
aS'1'
aS'1'
aS'1'
aS'1'
aS'0'
aS'0'
aS'0'
asbasg42
g43
sbag1
(g9
g3
NtRp242
(dp243
g12
(dp244
g14
g15
sg16
F100
sg17
F100
sg18
(lp245
F1.5430806350365276
aF0.76159415595576485
aF0.47197991560014774
aF242582621.70489514
aI9
aF2.4130035401958518
aF-2.998919770102253
aF20.9851094717012
aF266024120350.89932
aF11031.232920103323
aF-8.7649267022144706
aF40
aF41.54308063481524
aI0
aI0
aF-0.62699646021503652
aI6
aI0
aI0
aI0
aF-3.7615941559557649
aI0
aI0
aI0
aI0
aI0
aI0
aI0
aI0
aI0
aI0
aI0
aI0
aI0
aI0
aI0
aI0
aI0
aI0
aI0
aI0
aI0
aI0
aI0
aI0
aI0
aI0
aI0
aI0
aI0
aI0
aI0
aI0
aI0
aI0
aI0
aI0
aI0
aI0
aI0
aI0
aI0
aI0
aI0
aI0
aI0
aI0
aI0
aI0
aI0
aI0
aI0
aI0
aI0
aI0
aI0
aI0
aI0
aI0
aI0
aI0
aI0
aI0
aI0
aI0
aI0
aI0
aI0
aI0
aI0
aI0
aI0
aI0
aI0
aI0
aI0
aI0
aI0
aI0
aI0
aI0
aI0
aI0
aI0
aI0
aI0
aI0
aI0
aI0
aI0
aI0
aI0
aI0
aI0
aI0
aI0
aI0
aI0
aI0
aI0
aI0
aI0
aI0
aI0
aI0
aI0
aI0
aI0
aI0
aI0
aI0
aI0
aI0
aI0
aI0
aI0
aI0
aI0
aI0
aI0
aI0
aI0
aI0
aI0
aI0
aI0
aI0
aI0
aI0
aI0
aI0
aI0
aI0
aI0
aI0
aI0
aI0
aI0
aI0
aI0
aI0
aI0
aI0
aI0
aI0
aI0
aI0
aI0
aI0
aI0
aI0
aI0
aI0
aI0
aI0
aI0
aI0
aI0
aI0
aI0
aI0
aI0
aI0
aI0
aI0
aI0
aI0
aI0
aI0
aI0
aI0
aI0
aI0
aI0
aI0
aI0
aI0
aI0
aI0
aI0
asg20
F0
sg21
I01
sg22
Nsg23
g24
sg25
F100
sg26
S'DQxXb3@npTXbiHmU1xpXeOs>a1XcQC61'
p246
sg28
S'Error at Chromosome_0|math range error'
p247
ssg30
Nsg31
I0
sg32
(lp248
g1
(g34
g3
NtRp249
(dp250
g37
F0.10000000000000001
sg38
(lp251
S'0'
aS'1'
asg40
(lp252
S'0'
aS'1'
aS'0'
aS'0'
aS'1'
aS'1'
aS'1'
aS'0'
aS'1'
aS'0'
aS'1'
aS'1'
aS'1'
aS'1'
aS'1'
aS'0'
aS'1'
aS'1'
aS'1'
aS'0'
aS'0'
aS'1'
aS'1'
aS'1'
aS'0'
aS'0'
aS'0'
aS'0'
aS'0'
aS'0'
asbasg42
g43
sbag1
(g9
g3
NtRp253
(dp254
g12
(dp255
g14
g15
sg16
F100
sg17
F100
sg18
(lp256
F0.982807109087111
aF2.592352764293536e+21
aF1899.7521301791635
aF11013.232920103323
aF1
aF0.64201499201199974
aF0
aF10.999999988688948
aF1
aI0
aF8.5396824583439056e+24
aF123.4507411021609
aF1.028553532011165
aF0.69771145225178133
aI0
aF29936.070865949761
aF11021.232920103323
aI10
aI0
aI0
aF242582617.70489514
aI0
aI0
aI0
aI0
aI0
aI0
aI0
aI0
aI0
aI0
aI0
aI0
aI0
aI0
aI0
aI0
aI0
aI0
aI0
aI0
aI0
aI0
aI0
aI0
aI0
aI0
aI0
aI0
aI0
aI0
aI0
aI0
aI0
aI0
aI0
aI0
aI0
aI0
aI0
aI0
aI0
aI0
aI0
aI0
aI0
aI0
aI0
aI0
aI0
aI0
aI0
aI0
aI0
aI0
aI0
aI0
aI0
aI0
aI0
aI0
aI0
aI0
aI0
aI0
aI0
aI0
aI0
aI0
aI0
aI0
aI0
aI0
aI0
aI0
aI0
aI0
aI0
aI0
aI0
aI0
aI0
aI0
aI0
aI0
aI0
aI0
aI0
aI0
aI0
aI0
aI0
aI0
aI0
aI0
aI0
aI0
aI0
aI0
aI0
aI0
aI0
aI0
aI0
aI0
aI0
aI0
aI0
aI0
aI0
aI0
aI0
aI0
aI0
aI0
aI0
aI0
aI0
aI0
aI0
aI0
aI0
aI0
aI0
aI0
aI0
aI0
aI0
aI0
aI0
aI0
aI0
aI0
aI0
aI0
aI0
aI0
aI0
aI0
aI0
aI0
aI0
aI0
aI0
aI0
aI0
aI0
aI0
aI0
aI0
aI0
aI0
aI0
aI0
aI0
aI0
aI0
aI0
aI0
aI0
aI0
aI0
aI0
aI0
aI0
aI0
aI0
aI0
aI0
aI0
aI0
aI0
aI0
aI0
aI0
aI0
aI0
aI0
aI0
aI0
asg20
F0
sg21
I01
sg22
Nsg23
g24
sg25
F100
sg26
S'trR313Jocij9NFsmJKWyAXPLvcug>XEo'
p257
sg28
S'Error at Chromosome_0|math range error'
p258
ssg30
Nsg31
I0
sg32
(lp259
g1
(g34
g3
NtRp260
(dp261
g37
F0.10000000000000001
sg38
(lp262
S'0'
aS'1'
asg40
(lp263
S'1'
aS'0'
aS'1'
aS'1'
aS'0'
aS'0'
aS'1'
aS'0'
aS'1'
aS'0'
aS'0'
aS'1'
aS'0'
aS'0'
aS'1'
aS'1'
aS'1'
aS'1'
aS'0'
aS'0'
aS'1'
aS'0'
aS'0'
aS'0'
aS'0'
aS'1'
aS'1'
aS'1'
aS'0'
aS'0'
asbasg42
g43
sbag1
(g9
g3
NtRp264
(dp265
g12
(dp266
g14
g15
sg16
F100
sg17
F100
sg18
(lp267
F237
aF6.1020164715892042e+38
aF11013.232920103323
aF3.5083679560488157e+20
aI74
aF30009.070865949761
aF4063.5420254925939
aF3.7621956910836314
aF5.7100369490784212e+25
aI0
aF30032.07084924807
aF3.3274825590778879e+26
aI0
aI0
aI0
aF1135039747.5300772
aF2.2415092993128409
aF1.5430806348152437
aI0
aI0
aI0
aI0
aF1
aI0
aI0
aI0
aI0
aI0
aI0
aI0
aI0
aI0
aI0
aI0
aI0
aI0
aI0
aI0
aI0
aI0
aI0
aI0
aI0
aI0
aI0
aI0
aI0
aI0
aI0
aI0
aI0
aI0
aI0
aI0
aI0
aI0
aI0
aI0
aI0
aI0
aI0
aI0
aI0
aI0
aI0
aI0
aI0
aI0
aI0
aI0
aI0
aI0
aI0
aI0
aI0
aI0
aI0
aI0
aI0
aI0
aI0
aI0
aI0
aI0
aI0
aI0
aI0
aI0
aI0
aI0
aI0
aI0
aI0
aI0
aI0
aI0
aI0
aI0
aI0
aI0
aI0
aI0
aI0
aI0
aI0
aI0
aI0
aI0
aI0
aI0
aI0
aI0
aI0
aI0
aI0
aI0
aI0
aI0
aI0
aI0
aI0
aI0
aI0
aI0
aI0
aI0
aI0
aI0
aI0
aI0
aI0
aI0
aI0
aI0
aI0
aI0
aI0
aI0
aI0
aI0
aI0
aI0
aI0
aI0
aI0
aI0
aI0
aI0
aI0
aI0
aI0
aI0
aI0
aI0
aI0
aI0
aI0
aI0
aI0
aI0
aI0
aI0
aI0
aI0
aI0
aI0
aI0
aI0
aI0
aI0
aI0
aI0
aI0
aI0
aI0
aI0
aI0
aI0
aI0
aI0
aI0
aI0
aI0
aI0
aI0
aI0
aI0
aI0
aI0
aI0
aI0
aI0
aI0
aI0
aI0
aI0
aI0
aI0
aI0
aI0
asg20
F0
sg21
I01
sg22
Nsg23
g24
sg25
F100
sg26
S'k1qSzfGf$GrIXbCQG2nt?AU<gcX#pD@l'
p268
sg28
S'Error at Chromosome_0|math range error'
p269
ssg30
Nsg31
I0
sg32
(lp270
g1
(g34
g3
NtRp271
(dp272
g37
F0.10000000000000001
sg38
(lp273
S'0'
aS'1'
asg40
(lp274
S'0'
aS'1'
aS'0'
aS'1'
aS'1'
aS'1'
aS'0'
aS'0'
aS'1'
aS'0'
aS'1'
aS'1'
aS'0'
aS'1'
aS'1'
aS'0'
aS'0'
aS'1'
aS'0'
aS'0'
aS'1'
aS'1'
aS'0'
aS'0'
aS'0'
aS'0'
aS'0'
aS'1'
aS'0'
aS'0'
asbasg42
g43
sbag1
(g9
g3
NtRp275
(dp276
g12
(dp277
g14
g15
sg16
F100
sg17
F100
sg18
(lp278
F10153786555176.211
aF0.010044345320303787
aF286.87857252384407
aI80
aI60
aF1.4415580723239825
aF1.0172803854865464
aF72559.457583156414
aI0
aI0
aF1
aF1.3440585709080678e+43
aI0
aI0
aI0
aF1
aI0
aI0
aI0
aI0
aI0
aI0
aI0
aI0
aI0
aI0
aI0
aI0
aI0
aI0
aI0
aI0
aI0
aI0
aI0
aI0
aI0
aI0
aI0
aI0
aI0
aI0
aI0
aI0
aI0
aI0
aI0
aI0
aI0
aI0
aI0
aI0
aI0
aI0
aI0
aI0
aI0
aI0
aI0
aI0
aI0
aI0
aI0
aI0
aI0
aI0
aI0
aI0
aI0
aI0
aI0
aI0
aI0
aI0
aI0
aI0
aI0
aI0
aI0
aI0
aI0
aI0
aI0
aI0
aI0
aI0
aI0
aI0
aI0
aI0
aI0
aI0
aI0
aI0
aI0
aI0
aI0
aI0
aI0
aI0
aI0
aI0
aI0
aI0
aI0
aI0
aI0
aI0
aI0
aI0
aI0
aI0
aI0
aI0
aI0
aI0
aI0
aI0
aI0
aI0
aI0
aI0
aI0
aI0
aI0
aI0
aI0
aI0
aI0
aI0
aI0
aI0
aI0
aI0
aI0
aI0
aI0
aI0
aI0
aI0
aI0
aI0
aI0
aI0
aI0
aI0
aI0
aI0
aI0
aI0
aI0
aI0
aI0
aI0
aI0
aI0
aI0
aI0
aI0
aI0
aI0
aI0
aI0
aI0
aI0
aI0
aI0
aI0
aI0
aI0
aI0
aI0
aI0
aI0
aI0
aI0
aI0
aI0
aI0
aI0
aI0
aI0
aI0
aI0
aI0
aI0
aI0
aI0
aI0
aI0
aI0
aI0
aI0
aI0
aI0
aI0
aI0
aI0
aI0
aI0
asg20
F0
sg21
I01
sg22
Nsg23
g24
sg25
F100
sg26
S'wqsj4#rv3W9AigdiQISf3m3@c4KpNbQY'
p279
sg28
S'Error at Chromosome_0|math range error'
p280
ssg30
Nsg31
I0
sg32
(lp281
g1
(g34
g3
NtRp282
(dp283
g37
F0.10000000000000001
sg38
(lp284
S'0'
aS'1'
asg40
(lp285
S'1'
aS'1'
aS'0'
aS'0'
aS'0'
aS'1'
aS'1'
aS'1'
aS'0'
aS'1'
aS'0'
aS'0'
aS'1'
aS'1'
aS'0'
aS'1'
aS'1'
aS'1'
aS'1'
aS'1'
aS'1'
aS'1'
aS'0'
aS'0'
aS'0'
aS'0'
aS'1'
aS'1'
aS'0'
aS'0'
asbasg42
g43
sbag1
(g9
g3
NtRp286
(dp287
g12
(dp288
g14
g15
sg16
F100
sg17
F100
sg18
(lp289
F11.543080634815244
aF4.052356840206249e+72
aF9.4253695271605924
aF1.2102274953388423e+21
aF2.4463520074491623
aF29977.07084924807
aF4.052356840206249e+72
aF46778.709350461126
aF11023.232920103323
aF1
aF2.4463520074491623
aF1.5430806348152437
aF5.8163792453876901
aF1.5430806348152437
aI0
aI0
aI0
aF1.5430806348152437
aI0
aI0
aI0
aI0
aI0
aI0
aI0
aI0
aI0
aI0
aI0
aI0
aI0
aI0
aI0
aI0
aI0
aI0
aI0
aI0
aI0
aI0
aI0
aI0
aI0
aI0
aI0
aI0
aI0
aI0
aI0
aI0
aI0
aI0
aI0
aI0
aI0
aI0
aI0
aI0
aI0
aI0
aI0
aI0
aI0
aI0
aI0
aI0
aI0
aI0
aI0
aI0
aI0
aI0
aI0
aI0
aI0
aI0
aI0
aI0
aI0
aI0
aI0
aI0
aI0
aI0
aI0
aI0
aI0
aI0
aI0
aI0
aI0
aI0
aI0
aI0
aI0
aI0
aI0
aI0
aI0
aI0
aI0
aI0
aI0
aI0
aI0
aI0
aI0
aI0
aI0
aI0
aI0
aI0
aI0
aI0
aI0
aI0
aI0
aI0
aI0
aI0
aI0
aI0
aI0
aI0
aI0
aI0
aI0
aI0
aI0
aI0
aI0
aI0
aI0
aI0
aI0
aI0
aI0
aI0
aI0
aI0
aI0
aI0
aI0
aI0
aI0
aI0
aI0
aI0
aI0
aI0
aI0
aI0
aI0
aI0
aI0
aI0
aI0
aI0
aI0
aI0
aI0
aI0
aI0
aI0
aI0
aI0
aI0
aI0
aI0
aI0
aI0
aI0
aI0
aI0
aI0
aI0
aI0
aI0
aI0
aI0
aI0
aI0
aI0
aI0
aI0
aI0
aI0
aI0
aI0
aI0
aI0
aI0
aI0
aI0
aI0
aI0
aI0
aI0
aI0
aI0
asg20
F0
sg21
I01
sg22
Nsg23
g24
sg25
F100
sg26
S'Yp6$HJLzoU5&1AEA1<qRYRNq44c5fIHH'
p290
sg28
S'Error at Chromosome_0|math range error'
p291
ssg30
Nsg31
I0
sg32
(lp292
g1
(g34
g3
NtRp293
(dp294
g37
F0.10000000000000001
sg38
(lp295
S'0'
aS'1'
asg40
(lp296
S'1'
aS'0'
aS'1'
aS'0'
aS'1'
aS'1'
aS'1'
aS'0'
aS'0'
aS'1'
aS'0'
aS'0'
aS'1'
aS'1'
aS'1'
aS'0'
aS'1'
aS'0'
aS'1'
aS'1'
aS'0'
aS'0'
aS'0'
aS'0'
aS'0'
aS'0'
aS'0'
aS'0'
aS'0'
aS'0'
asbasg42
g43
sbag1
(g9
g3
NtRp297
(dp298
g12
(dp299
g14
g15
sg16
F100
sg17
F100
sg18
(lp300
F10.999999999442107
aF9.9999999958776922
aF2.4463519804752147
aF1.4461728084711574
aF0
aF83
aF16.238405843809936
aF5.8163792453876901
aF167.87857203186906
aF0
aF1
aF0
aI0
aI0
aI0
aI0
aI0
aI0
aI0
aI0
aI0
aI0
aI0
aI0
aI0
aI0
aI0
aI0
aI0
aI0
aI0
aI0
aI0
aI0
aI0
aI0
aI0
aI0
aI0
aI0
aI0
aI0
aI0
aI0
aI0
aI0
aI0
aI0
aI0
aI0
aI0
aI0
aI0
aI0
aI0
aI0
aI0
aI0
aI0
aI0
aI0
aI0
aI0
aI0
aI0
aI0
aI0
aI0
aI0
aI0
aI0
aI0
aI0
aI0
aI0
aI0
aI0
aI0
aI0
aI0
aI0
aI0
aI0
aI0
aI0
aI0
aI0
aI0
aI0
aI0
aI0
aI0
aI0
aI0
aI0
aI0
aI0
aI0
aI0
aI0
aI0
aI0
aI0
aI0
aI0
aI0
aI0
aI0
aI0
aI0
aI0
aI0
aI0
aI0
aI0
aI0
aI0
aI0
aI0
aI0
aI0
aI0
aI0
aI0
aI0
aI0
aI0
aI0
aI0
aI0
aI0
aI0
aI0
aI0
aI0
aI0
aI0
aI0
aI0
aI0
aI0
aI0
aI0
aI0
aI0
aI0
aI0
aI0
aI0
aI0
aI0
aI0
aI0
aI0
aI0
aI0
aI0
aI0
aI0
aI0
aI0
aI0
aI0
aI0
aI0
aI0
aI0
aI0
aI0
aI0
aI0
aI0
aI0
aI0
aI0
aI0
aI0
aI0
aI0
aI0
aI0
aI0
aI0
aI0
aI0
aI0
aI0
aI0
aI0
aI0
aI0
aI0
aI0
aI0
aI0
aI0
aI0
aI0
aI0
aI0
asg20
F0
sg21
I01
sg22
Nsg23
g24
sg25
F100
sg26
S'HBwptP$%DcI9<LP<4vvfcrQXf=WOSX#Q'
p301
sg28
S'Error at Chromosome_0|math range error'
p302
ssg30
Nsg31
I0
sg32
(lp303
g1
(g34
g3
NtRp304
(dp305
g37
F0.10000000000000001
sg38
(lp306
S'0'
aS'1'
asg40
(lp307
S'1'
aS'0'
aS'1'
aS'1'
aS'1'
aS'0'
aS'0'
aS'1'
aS'0'
aS'0'
aS'0'
aS'1'
aS'0'
aS'1'
aS'0'
aS'0'
aS'1'
aS'1'
aS'1'
aS'1'
aS'1'
aS'0'
aS'0'
aS'1'
aS'1'
aS'0'
aS'1'
aS'0'
aS'0'
aS'0'
asbasg42
g43
sbag1
(g9
g3
NtRp308
(dp309
g12
(dp310
g14
g15
sg16
F100
sg17
F100
sg18
(lp311
F1
aF0.9987389703229872
aF0.70564494641317288
aF-0.23840584404423515
aI0
aF6.6658300347738368
aF-0.34657026405203778
aF0.53911924582262394
aF0
aF1.5430806348152437
aF-1.1109633883920309
aF0.41347670984608564
aF1
aF51540.722096349724
aI0
aI0
aF0.51261466708242664
aF29937.070865949761
aI0
aI0
aI0
aF1
aI0
aI0
aI0
aI0
aI0
aI0
aI0
aI0
aI0
aI0
aI0
aI0
aI0
aI0
aI0
aI0
aI0
aI0
aI0
aI0
aI0
aI0
aI0
aI0
aI0
aI0
aI0
aI0
aI0
aI0
aI0
aI0
aI0
aI0
aI0
aI0
aI0
aI0
aI0
aI0
aI0
aI0
aI0
aI0
aI0
aI0
aI0
aI0
aI0
aI0
aI0
aI0
aI0
aI0
aI0
aI0
aI0
aI0
aI0
aI0
aI0
aI0
aI0
aI0
aI0
aI0
aI0
aI0
aI0
aI0
aI0
aI0
aI0
aI0
aI0
aI0
aI0
aI0
aI0
aI0
aI0
aI0
aI0
aI0
aI0
aI0
aI0
aI0
aI0
aI0
aI0
aI0
aI0
aI0
aI0
aI0
aI0
aI0
aI0
aI0
aI0
aI0
aI0
aI0
aI0
aI0
aI0
aI0
aI0
aI0
aI0
aI0
aI0
aI0
aI0
aI0
aI0
aI0
aI0
aI0
aI0
aI0
aI0
aI0
aI0
aI0
aI0
aI0
aI0
aI0
aI0
aI0
aI0
aI0
aI0
aI0
aI0
aI0
aI0
aI0
aI0
aI0
aI0
aI0
aI0
aI0
aI0
aI0
aI0
aI0
aI0
aI0
aI0
aI0
aI0
aI0
aI0
aI0
aI0
aI0
aI0
aI0
aI0
aI0
aI0
aI0
aI0
aI0
aI0
aI0
aI0
aI0
aI0
aI0
aI0
aI0
aI0
aI0
asg20
F0
sg21
I01
sg22
Nsg23
g24
sg25
F100
sg26
S'JyEdTqllpmd8yzBuIuMfjILpEnOiyk2%'
p312
sg28
S'Error at Chromosome_0|math range error'
p313
ssg30
Nsg31
I0
sg32
(lp314
g1
(g34
g3
NtRp315
(dp316
g37
F0.10000000000000001
sg38
(lp317
S'0'
aS'1'
asg40
(lp318
S'1'
aS'1'
aS'0'
aS'0'
aS'1'
aS'0'
aS'1'
aS'1'
aS'0'
aS'1'
aS'0'
aS'1'
aS'0'
aS'0'
aS'0'
aS'1'
aS'0'
aS'1'
aS'0'
aS'1'
aS'0'
aS'0'
aS'0'
aS'0'
aS'0'
aS'0'
aS'1'
aS'0'
aS'0'
aS'0'
asbasg42
g43
sbag1
(g9
g3
NtRp319
(dp320
g12
(dp321
g14
g15
sg16
F100
sg17
F100
sg18
(lp322
F601451.1237671664
aF58.47036875072039
aF5.8430399310198137e+42
aI0
aI0
aF1299.1622702910763
aF2.3161388215196648
aF1.3068721672745114
aF1.5430806348152437
aF1.5430806348152437
aF4.052356840206249e+72
aF10
aF1.3043045862358962
aF1.3043045862358962
aI0
aI0
aF2.4463520074491623
aF1.4228910844795333
aF1
aI0
aI0
aI0
aI0
aI0
aI0
aI0
aI0
aI0
aI0
aI0
aI0
aI0
aI0
aI0
aI0
aI0
aI0
aI0
aI0
aI0
aI0
aI0
aI0
aI0
aI0
aI0
aI0
aI0
aI0
aI0
aI0
aI0
aI0
aI0
aI0
aI0
aI0
aI0
aI0
aI0
aI0
aI0
aI0
aI0
aI0
aI0
aI0
aI0
aI0
aI0
aI0
aI0
aI0
aI0
aI0
aI0
aI0
aI0
aI0
aI0
aI0
aI0
aI0
aI0
aI0
aI0
aI0
aI0
aI0
aI0
aI0
aI0
aI0
aI0
aI0
aI0
aI0
aI0
aI0
aI0
aI0
aI0
aI0
aI0
aI0
aI0
aI0
aI0
aI0
aI0
aI0
aI0
aI0
aI0
aI0
aI0
aI0
aI0
aI0
aI0
aI0
aI0
aI0
aI0
aI0
aI0
aI0
aI0
aI0
aI0
aI0
aI0
aI0
aI0
aI0
aI0
aI0
aI0
aI0
aI0
aI0
aI0
aI0
aI0
aI0
aI0
aI0
aI0
aI0
aI0
aI0
aI0
aI0
aI0
aI0
aI0
aI0
aI0
aI0
aI0
aI0
aI0
aI0
aI0
aI0
aI0
aI0
aI0
aI0
aI0
aI0
aI0
aI0
aI0
aI0
aI0
aI0
aI0
aI0
aI0
aI0
aI0
aI0
aI0
aI0
aI0
aI0
aI0
aI0
aI0
aI0
aI0
aI0
aI0
aI0
aI0
aI0
aI0
aI0
aI0
asg20
F0
sg21
I01
sg22
Nsg23
g24
sg25
F100
sg26
S'>ZLBZg?HsjX8dsbnWZlH&D<TWYDZIX>B'
p323
sg28
S'Error at Chromosome_0|math range error'
p324
ssg30
Nsg31
I0
sg32
(lp325
g1
(g34
g3
NtRp326
(dp327
g37
F0.10000000000000001
sg38
(lp328
S'0'
aS'1'
asg40
(lp329
S'0'
aS'0'
aS'0'
aS'1'
aS'1'
aS'0'
aS'0'
aS'0'
aS'1'
aS'1'
aS'1'
aS'0'
aS'1'
aS'1'
aS'0'
aS'0'
aS'0'
aS'0'
aS'1'
aS'0'
aS'1'
aS'1'
aS'1'
aS'1'
aS'1'
aS'0'
aS'0'
aS'1'
aS'0'
aS'0'
asbasg42
g43
sbag1
(g9
g3
NtRp330
(dp331
g12
(dp332
g14
g15
sg16
F100
sg17
F100
sg18
(lp333
F-5.9611797513715397
aF-0.56744736185676026
aF1.5430806336532079
aF-0.95903803573201218
aF1.3718349009628978
aF18.039283932254868
aF0.41347670990383567
aF2.7703111921967549e+34
aF11.543080634815244
aF1.4461728085856087
aF0
aF10438.81890945494
aF9.244866375626001e+20
aI0
aI0
aI0
aI0
aI0
aF1.5430806348152437
aI0
aI0
aI0
aI0
aI0
aI0
aI0
aI0
aI0
aI0
aI0
aI0
aI0
aI0
aI0
aI0
aI0
aI0
aI0
aI0
aI0
aI0
aI0
aI0
aI0
aI0
aI0
aI0
aI0
aI0
aI0
aI0
aI0
aI0
aI0
aI0
aI0
aI0
aI0
aI0
aI0
aI0
aI0
aI0
aI0
aI0
aI0
aI0
aI0
aI0
aI0
aI0
aI0
aI0
aI0
aI0
aI0
aI0
aI0
aI0
aI0
aI0
aI0
aI0
aI0
aI0
aI0
aI0
aI0
aI0
aI0
aI0
aI0
aI0
aI0
aI0
aI0
aI0
aI0
aI0
aI0
aI0
aI0
aI0
aI0
aI0
aI0
aI0
aI0
aI0
aI0
aI0
aI0
aI0
aI0
aI0
aI0
aI0
aI0
aI0
aI0
aI0
aI0
aI0
aI0
aI0
aI0
aI0
aI0
aI0
aI0
aI0
aI0
aI0
aI0
aI0
aI0
aI0
aI0
aI0
aI0
aI0
aI0
aI0
aI0
aI0
aI0
aI0
aI0
aI0
aI0
aI0
aI0
aI0
aI0
aI0
aI0
aI0
aI0
aI0
aI0
aI0
aI0
aI0
aI0
aI0
aI0
aI0
aI0
aI0
aI0
aI0
aI0
aI0
aI0
aI0
aI0
aI0
aI0
aI0
aI0
aI0
aI0
aI0
aI0
aI0
aI0
aI0
aI0
aI0
aI0
aI0
aI0
aI0
aI0
aI0
aI0
aI0
aI0
aI0
aI0
asg20
F0
sg21
I01
sg22
Nsg23
g24
sg25
F100
sg26
S'P3k5HNda2%nVlQ@LdG%lexfDWa=x&$Cw'
p334
sg28
S'Error at Chromosome_0|math range error'
p335
ssg30
Nsg31
I0
sg32
(lp336
g1
(g34
g3
NtRp337
(dp338
g37
F0.10000000000000001
sg38
(lp339
S'0'
aS'1'
asg40
(lp340
S'0'
aS'1'
aS'1'
aS'1'
aS'1'
aS'1'
aS'0'
aS'0'
aS'1'
aS'1'
aS'1'
aS'1'
aS'0'
aS'1'
aS'0'
aS'1'
aS'1'
aS'1'
aS'0'
aS'0'
aS'0'
aS'1'
aS'0'
aS'1'
aS'0'
aS'0'
aS'0'
aS'1'
aS'0'
aS'0'
asbasg42
g43
sbag1
(g9
g3
NtRp341
(dp342
g12
(dp343
g14
g15
sg16
F100
sg17
F100
sg18
(lp344
F18.727013579467485
aF2.4010248060301316
aF1.1769263341851003e+17
aI100
aI50
aF223623723.10029435
aF1.6344088853625001e+44
aI0
aF242582597.70489514
aI30
aF89241150.481593639
aF89241196.481593639
aI10
aF1
aI0
aF2.4463520074491623
aI0
aF1
aI0
aI0
aI0
aI0
aI0
aI0
aI0
aI0
aI0
aI0
aI0
aI0
aI0
aI0
aI0
aI0
aI0
aI0
aI0
aI0
aI0
aI0
aI0
aI0
aI0
aI0
aI0
aI0
aI0
aI0
aI0
aI0
aI0
aI0
aI0
aI0
aI0
aI0
aI0
aI0
aI0
aI0
aI0
aI0
aI0
aI0
aI0
aI0
aI0
aI0
aI0
aI0
aI0
aI0
aI0
aI0
aI0
aI0
aI0
aI0
aI0
aI0
aI0
aI0
aI0
aI0
aI0
aI0
aI0
aI0
aI0
aI0
aI0
aI0
aI0
aI0
aI0
aI0
aI0
aI0
aI0
aI0
aI0
aI0
aI0
aI0
aI0
aI0
aI0
aI0
aI0
aI0
aI0
aI0
aI0
aI0
aI0
aI0
aI0
aI0
aI0
aI0
aI0
aI0
aI0
aI0
aI0
aI0
aI0
aI0
aI0
aI0
aI0
aI0
aI0
aI0
aI0
aI0
aI0
aI0
aI0
aI0
aI0
aI0
aI0
aI0
aI0
aI0
aI0
aI0
aI0
aI0
aI0
aI0
aI0
aI0
aI0
aI0
aI0
aI0
aI0
aI0
aI0
aI0
aI0
aI0
aI0
aI0
aI0
aI0
aI0
aI0
aI0
aI0
aI0
aI0
aI0
aI0
aI0
aI0
aI0
aI0
aI0
aI0
aI0
aI0
aI0
aI0
aI0
aI0
aI0
aI0
aI0
aI0
aI0
aI0
aI0
aI0
aI0
aI0
aI0
aI0
asg20
F0
sg21
I01
sg22
Nsg23
g24
sg25
F100
sg26
S'n8?zz=ToZgmEIcNfYhOQH<l6msFhgZWa'
p345
sg28
S'Error at Chromosome_0|math range error'
p346
ssg30
Nsg31
I0
sg32
(lp347
g1
(g34
g3
NtRp348
(dp349
g37
F0.10000000000000001
sg38
(lp350
S'0'
aS'1'
asg40
(lp351
S'0'
aS'0'
aS'1'
aS'0'
aS'0'
aS'0'
aS'0'
aS'0'
aS'1'
aS'1'
aS'0'
aS'0'
aS'0'
aS'0'
aS'0'
aS'0'
aS'1'
aS'0'
aS'1'
aS'1'
aS'0'
aS'1'
aS'0'
aS'0'
aS'0'
aS'0'
aS'0'
aS'0'
aS'0'
aS'0'
asbasg42
g43
sbag1
(g9
g3
NtRp352
(dp353
g12
(dp354
g14
g15
sg16
F100
sg17
F100
sg18
(lp355
F242582694.70489514
aF1
aF4.052356840206249e+72
aF11
aF0.68980358170449685
aF15.543080633952641
aF7904185.3878240027
aF0
aF-1.8871610862597146
aF0.47197991599628375
aF0.02692262398500378
aF1.5430806348152437
aF-0.95974603171341755
aI0
aI10
aF1.5430806348152437
aI10
aI0
aI0
aI0
aI0
aI0
aI0
aI0
aI0
aI0
aI0
aI0
aI0
aI0
aI0
aI0
aI0
aI0
aI0
aI0
aI0
aI0
aI0
aI0
aI0
aI0
aI0
aI0
aI0
aI0
aI0
aI0
aI0
aI0
aI0
aI0
aI0
aI0
aI0
aI0
aI0
aI0
aI0
aI0
aI0
aI0
aI0
aI0
aI0
aI0
aI0
aI0
aI0
aI0
aI0
aI0
aI0
aI0
aI0
aI0
aI0
aI0
aI0
aI0
aI0
aI0
aI0
aI0
aI0
aI0
aI0
aI0
aI0
aI0
aI0
aI0
aI0
aI0
aI0
aI0
aI0
aI0
aI0
aI0
aI0
aI0
aI0
aI0
aI0
aI0
aI0
aI0
aI0
aI0
aI0
aI0
aI0
aI0
aI0
aI0
aI0
aI0
aI0
aI0
aI0
aI0
aI0
aI0
aI0
aI0
aI0
aI0
aI0
aI0
aI0
aI0
aI0
aI0
aI0
aI0
aI0
aI0
aI0
aI0
aI0
aI0
aI0
aI0
aI0
aI0
aI0
aI0
aI0
aI0
aI0
aI0
aI0
aI0
aI0
aI0
aI0
aI0
aI0
aI0
aI0
aI0
aI0
aI0
aI0
aI0
aI0
aI0
aI0
aI0
aI0
aI0
aI0
aI0
aI0
aI0
aI0
aI0
aI0
aI0
aI0
aI0
aI0
aI0
aI0
aI0
aI0
aI0
aI0
aI0
aI0
aI0
aI0
aI0
aI0
aI0
aI0
aI0
aI0
aI0
asg20
F0
sg21
I01
sg22
Nsg23
g24
sg25
F100
sg26
S'aL3Fa=IhN@YEaLs?ZNAlxuEps>MPlj@='
p356
sg28
S'Error at Chromosome_0|math range error'
p357
ssg30
Nsg31
I0
sg32
(lp358
g1
(g34
g3
NtRp359
(dp360
g37
F0.10000000000000001
sg38
(lp361
S'0'
aS'1'
asg40
(lp362
S'0'
aS'0'
aS'0'
aS'0'
aS'0'
aS'1'
aS'0'
aS'1'
aS'1'
aS'0'
aS'0'
aS'1'
aS'0'
aS'1'
aS'1'
aS'1'
aS'0'
aS'0'
aS'1'
aS'1'
aS'1'
aS'0'
aS'0'
aS'1'
aS'1'
aS'1'
aS'1'
aS'0'
aS'0'
aS'0'
asbasg42
g43
sbag1
(g9
g3
NtRp363
(dp364
g12
(dp365
g14
g15
sg16
F100
sg17
F100
sg18
(lp366
F0.71303002299186979
aF102
aF0.99999999587769273
aF0.99999999944210638
aF1
aF-4.1223072733131971e-09
aF0
aF1
aI0
aI0
aF1.1789365046922016
aF0
aI0
aI0
aI0
aI0
aI0
aI0
aI0
aI0
aI0
aI0
aI0
aI0
aI0
aI0
aI0
aI0
aI0
aI0
aI0
aI0
aI0
aI0
aI0
aI0
aI0
aI0
aI0
aI0
aI0
aI0
aI0
aI0
aI0
aI0
aI0
aI0
aI0
aI0
aI0
aI0
aI0
aI0
aI0
aI0
aI0
aI0
aI0
aI0
aI0
aI0
aI0
aI0
aI0
aI0
aI0
aI0
aI0
aI0
aI0
aI0
aI0
aI0
aI0
aI0
aI0
aI0
aI0
aI0
aI0
aI0
aI0
aI0
aI0
aI0
aI0
aI0
aI0
aI0
aI0
aI0
aI0
aI0
aI0
aI0
aI0
aI0
aI0
aI0
aI0
aI0
aI0
aI0
aI0
aI0
aI0
aI0
aI0
aI0
aI0
aI0
aI0
aI0
aI0
aI0
aI0
aI0
aI0
aI0
aI0
aI0
aI0
aI0
aI0
aI0
aI0
aI0
aI0
aI0
aI0
aI0
aI0
aI0
aI0
aI0
aI0
aI0
aI0
aI0
aI0
aI0
aI0
aI0
aI0
aI0
aI0
aI0
aI0
aI0
aI0
aI0
aI0
aI0
aI0
aI0
aI0
aI0
aI0
aI0
aI0
aI0
aI0
aI0
aI0
aI0
aI0
aI0
aI0
aI0
aI0
aI0
aI0
aI0
aI0
aI0
aI0
aI0
aI0
aI0
aI0
aI0
aI0
aI0
aI0
aI0
aI0
aI0
aI0
aI0
aI0
aI0
aI0
aI0
aI0
aI0
aI0
aI0
aI0
aI0
asg20
F0
sg21
I01
sg22
Nsg23
g24
sg25
F100
sg26
S'ciHLbkyCcd8YZ==>8DdAQLd<m9T1S3eU'
p367
sg28
S'Error at Chromosome_0|math range error'
p368
ssg30
Nsg31
I0
sg32
(lp369
g1
(g34
g3
NtRp370
(dp371
g37
F0.10000000000000001
sg38
(lp372
S'0'
aS'1'
asg40
(lp373
S'1'
aS'1'
aS'1'
aS'1'
aS'1'
aS'1'
aS'1'
aS'1'
aS'0'
aS'0'
aS'0'
aS'1'
aS'0'
aS'0'
aS'1'
aS'1'
aS'1'
aS'0'
aS'1'
aS'0'
aS'1'
aS'1'
aS'0'
aS'1'
aS'1'
aS'0'
aS'1'
aS'1'
aS'0'
aS'0'
asbasg42
g43
sbag1
(g9
g3
NtRp374
(dp375
g12
(dp376
g14
g15
sg16
F100
sg17
F100
sg18
(lp377
F4.052356840206249e+72
aF29936.070865949761
aF29937.070865949761
aF1
aI0
aF23582.905276244262
aF1.4461728085856087
aF1.5430806348152437
aF1
aI0
aI0
aF1.3043045862358962
aI0
aI0
aI0
aI0
aI0
aI0
aI0
aI0
aI0
aI0
aI0
aI0
aI0
aI0
aI0
aI0
aI0
aI0
aI0
aI0
aI0
aI0
aI0
aI0
aI0
aI0
aI0
aI0
aI0
aI0
aI0
aI0
aI0
aI0
aI0
aI0
aI0
aI0
aI0
aI0
aI0
aI0
aI0
aI0
aI0
aI0
aI0
aI0
aI0
aI0
aI0
aI0
aI0
aI0
aI0
aI0
aI0
aI0
aI0
aI0
aI0
aI0
aI0
aI0
aI0
aI0
aI0
aI0
aI0
aI0
aI0
aI0
aI0
aI0
aI0
aI0
aI0
aI0
aI0
aI0
aI0
aI0
aI0
aI0
aI0
aI0
aI0
aI0
aI0
aI0
aI0
aI0
aI0
aI0
aI0
aI0
aI0
aI0
aI0
aI0
aI0
aI0
aI0
aI0
aI0
aI0
aI0
aI0
aI0
aI0
aI0
aI0
aI0
aI0
aI0
aI0
aI0
aI0
aI0
aI0
aI0
aI0
aI0
aI0
aI0
aI0
aI0
aI0
aI0
aI0
aI0
aI0
aI0
aI0
aI0
aI0
aI0
aI0
aI0
aI0
aI0
aI0
aI0
aI0
aI0
aI0
aI0
aI0
aI0
aI0
aI0
aI0
aI0
aI0
aI0
aI0
aI0
aI0
aI0
aI0
aI0
aI0
aI0
aI0
aI0
aI0
aI0
aI0
aI0
aI0
aI0
aI0
aI0
aI0
aI0
aI0
aI0
aI0
aI0
aI0
aI0
aI0
aI0
aI0
aI0
aI0
aI0
aI0
asg20
F0
sg21
I01
sg22
Nsg23
g24
sg25
F100
sg26
S'9z$qK@CkhxC&R44>n5GN%vQi=3O7zlU@'
p378
sg28
S'Error at Chromosome_0|math range error'
p379
ssg30
Nsg31
I0
sg32
(lp380
g1
(g34
g3
NtRp381
(dp382
g37
F0.10000000000000001
sg38
(lp383
S'0'
aS'1'
asg40
(lp384
S'0'
aS'1'
aS'1'
aS'1'
aS'0'
aS'0'
aS'1'
aS'0'
aS'1'
aS'1'
aS'0'
aS'0'
aS'1'
aS'1'
aS'1'
aS'1'
aS'1'
aS'0'
aS'1'
aS'1'
aS'0'
aS'0'
aS'1'
aS'0'
aS'1'
aS'0'
aS'0'
aS'1'
aS'0'
aS'0'
asbasg42
g43
sbag1
(g9
g3
NtRp385
(dp386
g12
(dp387
g14
g15
sg16
F100
sg17
F100
sg18
(lp388
F1.3280420926342511
aF1.3043045860396965
aF1
aF10.912636575963212
aI0
aF1.3383718352416769
aF1.0003779763867486
aF0.64201499200436618
aI10
aI40
aF0.51261472443868561
aF1.4782177212821717
aF0.76159415595576485
aI0
aI0
aI0
aI0
aI0
aI0
aI0
aI0
aI0
aI0
aI0
aI0
aI0
aI0
aI0
aI0
aI0
aI0
aI0
aI0
aI0
aI0
aI0
aI0
aI0
aI0
aI0
aI0
aI0
aI0
aI0
aI0
aI0
aI0
aI0
aI0
aI0
aI0
aI0
aI0
aI0
aI0
aI0
aI0
aI0
aI0
aI0
aI0
aI0
aI0
aI0
aI0
aI0
aI0
aI0
aI0
aI0
aI0
aI0
aI0
aI0
aI0
aI0
aI0
aI0
aI0
aI0
aI0
aI0
aI0
aI0
aI0
aI0
aI0
aI0
aI0
aI0
aI0
aI0
aI0
aI0
aI0
aI0
aI0
aI0
aI0
aI0
aI0
aI0
aI0
aI0
aI0
aI0
aI0
aI0
aI0
aI0
aI0
aI0
aI0
aI0
aI0
aI0
aI0
aI0
aI0
aI0
aI0
aI0
aI0
aI0
aI0
aI0
aI0
aI0
aI0
aI0
aI0
aI0
aI0
aI0
aI0
aI0
aI0
aI0
aI0
aI0
aI0
aI0
aI0
aI0
aI0
aI0
aI0
aI0
aI0
aI0
aI0
aI0
aI0
aI0
aI0
aI0
aI0
aI0
aI0
aI0
aI0
aI0
aI0
aI0
aI0
aI0
aI0
aI0
aI0
aI0
aI0
aI0
aI0
aI0
aI0
aI0
aI0
aI0
aI0
aI0
aI0
aI0
aI0
aI0
aI0
aI0
aI0
aI0
aI0
aI0
aI0
aI0
aI0
aI0
aI0
aI0
aI0
aI0
aI0
aI0
asg20
F0
sg21
I01
sg22
Nsg23
g24
sg25
F100
sg26
S'ZFyuE?Vc&UBZqL$=$zKy13Dt8Qb=%#NL'
p389
sg28
S'Error at Chromosome_0|math range error'
p390
ssg30
Nsg31
I0
sg32
(lp391
g1
(g34
g3
NtRp392
(dp393
g37
F0.10000000000000001
sg38
(lp394
S'0'
aS'1'
asg40
(lp395
S'0'
aS'0'
aS'1'
aS'0'
aS'1'
aS'1'
aS'1'
aS'0'
aS'1'
aS'1'
aS'0'
aS'0'
aS'1'
aS'0'
aS'1'
aS'1'
aS'1'
aS'0'
aS'1'
aS'0'
aS'0'
aS'0'
aS'0'
aS'1'
aS'0'
aS'0'
aS'1'
aS'0'
aS'0'
aS'0'
asbasg42
g43
sbag1
(g9
g3
NtRp396
(dp397
g12
(dp398
g14
g15
sg16
F100
sg17
F100
sg18
(lp399
F0.88494638994786112
aF-4.7255549837514952
aF0.43979766124265846
aF242582597.70489514
aF1.7390194251057594
aF383116821.60930598
aF-0.94026022676920007
aF11023.232920103323
aF4.052356840206249e+72
aF1.5430806348152437
aF1.4733080448993472
aF-2.6073760678648989
aI0
aF4.052356840206249e+72
aF1
aF1.5430806348152437
aF5.8163792453876901
aF1
aF2.4463520074491623
aI0
aI0
aF167.87857252384407
aI0
aF1.5430806348152437
aI0
aI0
aF1
aI0
aI0
aI0
aI0
aI0
aI0
aI0
aI0
aI0
aI0
aI0
aI0
aI0
aI0
aI0
aI0
aI0
aI0
aI0
aI0
aI0
aI0
aI0
aI0
aI0
aI0
aI0
aI0
aI0
aI0
aI0
aI0
aI0
aI0
aI0
aI0
aI0
aI0
aI0
aI0
aI0
aI0
aI0
aI0
aI0
aI0
aI0
aI0
aI0
aI0
aI0
aI0
aI0
aI0
aI0
aI0
aI0
aI0
aI0
aI0
aI0
aI0
aI0
aI0
aI0
aI0
aI0
aI0
aI0
aI0
aI0
aI0
aI0
aI0
aI0
aI0
aI0
aI0
aI0
aI0
aI0
aI0
aI0
aI0
aI0
aI0
aI0
aI0
aI0
aI0
aI0
aI0
aI0
aI0
aI0
aI0
aI0
aI0
aI0
aI0
aI0
aI0
aI0
aI0
aI0
aI0
aI0
aI0
aI0
aI0
aI0
aI0
aI0
aI0
aI0
aI0
aI0
aI0
aI0
aI0
aI0
aI0
aI0
aI0
aI0
aI0
aI0
aI0
aI0
aI0
aI0
aI0
aI0
aI0
aI0
aI0
aI0
aI0
aI0
aI0
aI0
aI0
aI0
aI0
aI0
aI0
aI0
aI0
aI0
aI0
aI0
aI0
aI0
aI0
aI0
aI0
aI0
aI0
aI0
aI0
aI0
aI0
aI0
aI0
aI0
aI0
aI0
aI0
aI0
aI0
aI0
aI0
aI0
asg20
F0
sg21
I01
sg22
Nsg23
g24
sg25
F100
sg26
S'NL6wkP6WGN1ZvxVJqo2<#MEwkY3&HT?B'
p400
sg28
S'Error at Chromosome_0|math range error'
p401
ssg30
Nsg31
I0
sg32
(lp402
g1
(g34
g3
NtRp403
(dp404
g37
F0.10000000000000001
sg38
(lp405
S'0'
aS'1'
asg40
(lp406
S'1'
aS'0'
aS'0'
aS'1'
aS'0'
aS'1'
aS'0'
aS'0'
aS'1'
aS'0'
aS'0'
aS'1'
aS'1'
aS'0'
aS'0'
aS'1'
aS'1'
aS'0'
aS'0'
aS'0'
aS'0'
aS'0'
aS'1'
aS'1'
aS'0'
aS'0'
aS'1'
aS'1'
aS'0'
aS'0'
asbasg42
g43
sbag1
(g9
g3
NtRp407
(dp408
g12
(dp409
g14
g15
sg16
F100
sg17
F100
sg18
(lp410
F2783.4711331084823
aF8677.1375569006359
aF2933831536977303
aI-1
aI0
aF0.76159415594435464
aF4064.5420254925939
aF-2
aI-1
aI0
aF0.64205538211698976
aF1.0000005926669533
aI0
aI-1
aI-2
aF67910.093024800444
aF4050.5420254925939
aI0
aI0
aI-2
aF4051.5420254925939
aI0
aI0
aI0
aI0
aI0
aI0
aI0
aI0
aI0
aI0
aI0
aI0
aI0
aI0
aI0
aI0
aI0
aI0
aI0
aI0
aI0
aI0
aI0
aI0
aI0
aI0
aI0
aI0
aI0
aI0
aI0
aI0
aI0
aI0
aI0
aI0
aI0
aI0
aI0
aI0
aI0
aI0
aI0
aI0
aI0
aI0
aI0
aI0
aI0
aI0
aI0
aI0
aI0
aI0
aI0
aI0
aI0
aI0
aI0
aI0
aI0
aI0
aI0
aI0
aI0
aI0
aI0
aI0
aI0
aI0
aI0
aI0
aI0
aI0
aI0
aI0
aI0
aI0
aI0
aI0
aI0
aI0
aI0
aI0
aI0
aI0
aI0
aI0
aI0
aI0
aI0
aI0
aI0
aI0
aI0
aI0
aI0
aI0
aI0
aI0
aI0
aI0
aI0
aI0
aI0
aI0
aI0
aI0
aI0
aI0
aI0
aI0
aI0
aI0
aI0
aI0
aI0
aI0
aI0
aI0
aI0
aI0
aI0
aI0
aI0
aI0
aI0
aI0
aI0
aI0
aI0
aI0
aI0
aI0
aI0
aI0
aI0
aI0
aI0
aI0
aI0
aI0
aI0
aI0
aI0
aI0
aI0
aI0
aI0
aI0
aI0
aI0
aI0
aI0
aI0
aI0
aI0
aI0
aI0
aI0
aI0
aI0
aI0
aI0
aI0
aI0
aI0
aI0
aI0
aI0
aI0
aI0
aI0
aI0
aI0
aI0
aI0
aI0
aI0
asg20
F0
sg21
I01
sg22
Nsg23
g24
sg25
F100
sg26
S'kC84NWXmK#TYUU=89yrgB22sdNrqS17d'
p411
sg28
S'Error at Chromosome_0|math range error'
p412
ssg30
Nsg31
I0
sg32
(lp413
g1
(g34
g3
NtRp414
(dp415
g37
F0.10000000000000001
sg38
(lp416
S'0'
aS'1'
asg40
(lp417
S'0'
aS'0'
aS'0'
aS'0'
aS'1'
aS'0'
aS'1'
aS'1'
aS'0'
aS'1'
aS'0'
aS'1'
aS'0'
aS'1'
aS'1'
aS'1'
aS'1'
aS'1'
aS'0'
aS'1'
aS'1'
aS'1'
aS'1'
aS'0'
aS'1'
aS'1'
aS'1'
aS'0'
aS'0'
aS'0'
asbasg42
g43
sbag1
(g9
g3
NtRp418
(dp419
g12
(dp420
g14
g15
sg16
F100
sg17
F100
sg18
(lp421
F0.84771343140154531
aF2.8691448966208877
aF723128532145.73755
aI10
aI0
aF0.98510947170120056
aF3.0466538302493325
aF1.1769263341851003e+17
aI0
aF1.3959093421023823
aF-0.79575193486203089
aF1.5430806348152437
aF1.5430806299707034
aI0
aI0
aI0
aI0
aI0
aI0
aI0
aI0
aI0
aI0
aI0
aI0
aI0
aI0
aI0
aI0
aI0
aI0
aI0
aI0
aI0
aI0
aI0
aI0
aI0
aI0
aI0
aI0
aI0
aI0
aI0
aI0
aI0
aI0
aI0
aI0
aI0
aI0
aI0
aI0
aI0
aI0
aI0
aI0
aI0
aI0
aI0
aI0
aI0
aI0
aI0
aI0
aI0
aI0
aI0
aI0
aI0
aI0
aI0
aI0
aI0
aI0
aI0
aI0
aI0
aI0
aI0
aI0
aI0
aI0
aI0
aI0
aI0
aI0
aI0
aI0
aI0
aI0
aI0
aI0
aI0
aI0
aI0
aI0
aI0
aI0
aI0
aI0
aI0
aI0
aI0
aI0
aI0
aI0
aI0
aI0
aI0
aI0
aI0
aI0
aI0
aI0
aI0
aI0
aI0
aI0
aI0
aI0
aI0
aI0
aI0
aI0
aI0
aI0
aI0
aI0
aI0
aI0
aI0
aI0
aI0
aI0
aI0
aI0
aI0
aI0
aI0
aI0
aI0
aI0
aI0
aI0
aI0
aI0
aI0
aI0
aI0
aI0
aI0
aI0
aI0
aI0
aI0
aI0
aI0
aI0
aI0
aI0
aI0
aI0
aI0
aI0
aI0
aI0
aI0
aI0
aI0
aI0
aI0
aI0
aI0
aI0
aI0
aI0
aI0
aI0
aI0
aI0
aI0
aI0
aI0
aI0
aI0
aI0
aI0
aI0
aI0
aI0
aI0
aI0
aI0
aI0
aI0
aI0
aI0
aI0
aI0
asg20
F0
sg21
I01
sg22
Nsg23
g24
sg25
F100
sg26
S'kAYPhI7LbMb5CUybIG6IwmvrHgFSTStA'
p422
sg28
S'Error at Chromosome_0|math range error'
p423
ssg30
Nsg31
I0
sg32
(lp424
g1
(g34
g3
NtRp425
(dp426
g37
F0.10000000000000001
sg38
(lp427
S'0'
aS'1'
asg40
(lp428
S'0'
aS'0'
aS'1'
aS'1'
aS'0'
aS'0'
aS'1'
aS'0'
aS'0'
aS'1'
aS'0'
aS'1'
aS'0'
aS'0'
aS'1'
aS'1'
aS'0'
aS'1'
aS'0'
aS'1'
aS'1'
aS'1'
aS'0'
aS'1'
aS'1'
aS'1'
aS'0'
aS'0'
aS'0'
aS'0'
asbasg42
g43
sbag1
(g9
g3
NtRp429
(dp430
g12
(dp431
g14
g15
sg16
F100
sg17
F100
sg18
(lp432
F1.4781332941567737e+53
aF4.052356840206249e+72
aF18384.256154065904
aF2.1841877019103895
aF1
aF0.43979766124265846
aF2.2487314964299381e+43
aF8.539682458342995e+24
aF167.87857252384407
aF1.543059785562849
aI0
aF1.5430806348152437
aF1.5236992936669551
aF1
aI0
aI0
aI0
aF4.052356840206249e+72
aI0
aI0
aI0
aI0
aI0
aI0
aI0
aI0
aI0
aI0
aI0
aI0
aI0
aI0
aI0
aI0
aI0
aI0
aI0
aI0
aI0
aI0
aI0
aI0
aI0
aI0
aI0
aI0
aI0
aI0
aI0
aI0
aI0
aI0
aI0
aI0
aI0
aI0
aI0
aI0
aI0
aI0
aI0
aI0
aI0
aI0
aI0
aI0
aI0
aI0
aI0
aI0
aI0
aI0
aI0
aI0
aI0
aI0
aI0
aI0
aI0
aI0
aI0
aI0
aI0
aI0
aI0
aI0
aI0
aI0
aI0
aI0
aI0
aI0
aI0
aI0
aI0
aI0
aI0
aI0
aI0
aI0
aI0
aI0
aI0
aI0
aI0
aI0
aI0
aI0
aI0
aI0
aI0
aI0
aI0
aI0
aI0
aI0
aI0
aI0
aI0
aI0
aI0
aI0
aI0
aI0
aI0
aI0
aI0
aI0
aI0
aI0
aI0
aI0
aI0
aI0
aI0
aI0
aI0
aI0
aI0
aI0
aI0
aI0
aI0
aI0
aI0
aI0
aI0
aI0
aI0
aI0
aI0
aI0
aI0
aI0
aI0
aI0
aI0
aI0
aI0
aI0
aI0
aI0
aI0
aI0
aI0
aI0
aI0
aI0
aI0
aI0
aI0
aI0
aI0
aI0
aI0
aI0
aI0
aI0
aI0
aI0
aI0
aI0
aI0
aI0
aI0
aI0
aI0
aI0
aI0
aI0
aI0
aI0
aI0
aI0
aI0
aI0
aI0
aI0
aI0
aI0
asg20
F0
sg21
I01
sg22
Nsg23
g24
sg25
F100
sg26
S'x6c>f<#QqfEcQm=<Zq&cL7>r3EVPSfnF'
p433
sg28
S'Error at Chromosome_0|math range error'
p434
ssg30
Nsg31
I0
sg32
(lp435
g1
(g34
g3
NtRp436
(dp437
g37
F0.10000000000000001
sg38
(lp438
S'0'
aS'1'
asg40
(lp439
S'1'
aS'1'
aS'1'
aS'0'
aS'1'
aS'1'
aS'1'
aS'1'
aS'1'
aS'1'
aS'0'
aS'0'
aS'1'
aS'1'
aS'1'
aS'0'
aS'1'
aS'1'
aS'0'
aS'1'
aS'1'
aS'1'
aS'1'
aS'1'
aS'1'
aS'1'
aS'0'
aS'1'
aS'0'
aS'0'
asbasg42
g43
sbag1
(g9
g3
NtRp440
(dp441
g12
(dp442
g14
g15
sg16
F100
sg17
F100
sg18
(lp443
F29.854466746916557
aF4.0523511344593441e+72
aF659407866.87372816
aF1965667148572.021
aF2.4463520074491623
aF33.594456306716509
aF2.960486013832335e+47
aF1.2906564430950338e+20
aF0.99999999981170551
aF2.7703111921967549e+34
aI20
aF4.052356840206249e+72
aF0.99999999910127235
aF1.5430806348152437
aI0
aI0
aI0
aF0.99999999944210638
aI0
aI0
aI0
aI0
aI0
aI0
aI0
aI0
aI0
aI0
aI0
aI0
aI0
aI0
aI0
aI0
aI0
aI0
aI0
aI0
aI0
aI0
aI0
aI0
aI0
aI0
aI0
aI0
aI0
aI0
aI0
aI0
aI0
aI0
aI0
aI0
aI0
aI0
aI0
aI0
aI0
aI0
aI0
aI0
aI0
aI0
aI0
aI0
aI0
aI0
aI0
aI0
aI0
aI0
aI0
aI0
aI0
aI0
aI0
aI0
aI0
aI0
aI0
aI0
aI0
aI0
aI0
aI0
aI0
aI0
aI0
aI0
aI0
aI0
aI0
aI0
aI0
aI0
aI0
aI0
aI0
aI0
aI0
aI0
aI0
aI0
aI0
aI0
aI0
aI0
aI0
aI0
aI0
aI0
aI0
aI0
aI0
aI0
aI0
aI0
aI0
aI0
aI0
aI0
aI0
aI0
aI0
aI0
aI0
aI0
aI0
aI0
aI0
aI0
aI0
aI0
aI0
aI0
aI0
aI0
aI0
aI0
aI0
aI0
aI0
aI0
aI0
aI0
aI0
aI0
aI0
aI0
aI0
aI0
aI0
aI0
aI0
aI0
aI0
aI0
aI0
aI0
aI0
aI0
aI0
aI0
aI0
aI0
aI0
aI0
aI0
aI0
aI0
aI0
aI0
aI0
aI0
aI0
aI0
aI0
aI0
aI0
aI0
aI0
aI0
aI0
aI0
aI0
aI0
aI0
aI0
aI0
aI0
aI0
aI0
aI0
aI0
aI0
aI0
aI0
aI0
aI0
asg20
F0
sg21
I01
sg22
Nsg23
g24
sg25
F100
sg26
S'duXWw8ajpJLF&6MvfVhMRg%hLvfGkZaR'
p444
sg28
S'Error at Chromosome_0|math range error'
p445
ssg30
Nsg31
I0
sg32
(lp446
g1
(g34
g3
NtRp447
(dp448
g37
F0.10000000000000001
sg38
(lp449
S'0'
aS'1'
asg40
(lp450
S'0'
aS'0'
aS'0'
aS'1'
aS'1'
aS'1'
aS'1'
aS'0'
aS'1'
aS'0'
aS'0'
aS'1'
aS'0'
aS'0'
aS'0'
aS'0'
aS'0'
aS'1'
aS'0'
aS'0'
aS'1'
aS'0'
aS'1'
aS'0'
aS'1'
aS'0'
aS'1'
aS'0'
aS'0'
aS'0'
asbasg42
g43
sbag1
(g9
g3
NtRp451
(dp452
g12
(dp453
g14
g15
sg16
F100
sg17
F100
sg18
(lp454
F51981.722084946785
aF1.5214735598497848
aF40585.145563739068
aF11013.232920103323
aF11013.232920103323
aF1.3043045862358962
aF223623772.13415772
aF242582657.70489514
aF11063.232920103323
aF1
aF3697738.8338995399
aF29937.070865949761
aI0
aI0
aI0
aI0
aI0
aI0
aI0
aI0
aI0
aI0
aI0
aI0
aI0
aI0
aI0
aI0
aI0
aI0
aI0
aI0
aI0
aI0
aI0
aI0
aI0
aI0
aI0
aI0
aI0
aI0
aI0
aI0
aI0
aI0
aI0
aI0
aI0
aI0
aI0
aI0
aI0
aI0
aI0
aI0
aI0
aI0
aI0
aI0
aI0
aI0
aI0
aI0
aI0
aI0
aI0
aI0
aI0
aI0
aI0
aI0
aI0
aI0
aI0
aI0
aI0
aI0
aI0
aI0
aI0
aI0
aI0
aI0
aI0
aI0
aI0
aI0
aI0
aI0
aI0
aI0
aI0
aI0
aI0
aI0
aI0
aI0
aI0
aI0
aI0
aI0
aI0
aI0
aI0
aI0
aI0
aI0
aI0
aI0
aI0
aI0
aI0
aI0
aI0
aI0
aI0
aI0
aI0
aI0
aI0
aI0
aI0
aI0
aI0
aI0
aI0
aI0
aI0
aI0
aI0
aI0
aI0
aI0
aI0
aI0
aI0
aI0
aI0
aI0
aI0
aI0
aI0
aI0
aI0
aI0
aI0
aI0
aI0
aI0
aI0
aI0
aI0
aI0
aI0
aI0
aI0
aI0
aI0
aI0
aI0
aI0
aI0
aI0
aI0
aI0
aI0
aI0
aI0
aI0
aI0
aI0
aI0
aI0
aI0
aI0
aI0
aI0
aI0
aI0
aI0
aI0
aI0
aI0
aI0
aI0
aI0
aI0
aI0
aI0
aI0
aI0
aI0
aI0
aI0
aI0
aI0
aI0
aI0
aI0
asg20
F0
sg21
I01
sg22
Nsg23
g24
sg25
F100
sg26
S'rhzIy&=hq8wQFmEMQoM=C41@JE1oP1YY'
p455
sg28
S'Error at Chromosome_0|math range error'
p456
ssg30
Nsg31
I0
sg32
(lp457
g1
(g34
g3
NtRp458
(dp459
g37
F0.10000000000000001
sg38
(lp460
S'0'
aS'1'
asg40
(lp461
S'0'
aS'1'
aS'0'
aS'0'
aS'0'
aS'1'
aS'1'
aS'0'
aS'1'
aS'1'
aS'0'
aS'1'
aS'1'
aS'0'
aS'0'
aS'0'
aS'0'
aS'1'
aS'1'
aS'0'
aS'0'
aS'0'
aS'0'
aS'0'
aS'1'
aS'1'
aS'1'
aS'1'
aS'0'
aS'0'
asbasg42
g43
sbag1
(g9
g3
NtRp462
(dp463
g12
(dp464
g14
g15
sg16
F100
sg17
F100
sg18
(lp465
F157.45842574696417
aF152.99999999587769
aF127179.43385539316
aI128
aI0
aF1135039777.5300772
aF1.2219167232309313e+46
aF242582597.70489514
aI29
aI0
aF11
aF60
aF10.761594155955764
aI0
aI0
aI-1
aF21.543080634815244
aI0
aI0
aI0
aI0
aI0
aI0
aI0
aI0
aI0
aI0
aI0
aI0
aI0
aI0
aI0
aI0
aI0
aI0
aI0
aI0
aI0
aI0
aI0
aI0
aI0
aI0
aI0
aI0
aI0
aI0
aI0
aI0
aI0
aI0
aI0
aI0
aI0
aI0
aI0
aI0
aI0
aI0
aI0
aI0
aI0
aI0
aI0
aI0
aI0
aI0
aI0
aI0
aI0
aI0
aI0
aI0
aI0
aI0
aI0
aI0
aI0
aI0
aI0
aI0
aI0
aI0
aI0
aI0
aI0
aI0
aI0
aI0
aI0
aI0
aI0
aI0
aI0
aI0
aI0
aI0
aI0
aI0
aI0
aI0
aI0
aI0
aI0
aI0
aI0
aI0
aI0
aI0
aI0
aI0
aI0
aI0
aI0
aI0
aI0
aI0
aI0
aI0
aI0
aI0
aI0
aI0
aI0
aI0
aI0
aI0
aI0
aI0
aI0
aI0
aI0
aI0
aI0
aI0
aI0
aI0
aI0
aI0
aI0
aI0
aI0
aI0
aI0
aI0
aI0
aI0
aI0
aI0
aI0
aI0
aI0
aI0
aI0
aI0
aI0
aI0
aI0
aI0
aI0
aI0
aI0
aI0
aI0
aI0
aI0
aI0
aI0
aI0
aI0
aI0
aI0
aI0
aI0
aI0
aI0
aI0
aI0
aI0
aI0
aI0
aI0
aI0
aI0
aI0
aI0
aI0
aI0
aI0
aI0
aI0
aI0
aI0
aI0
aI0
aI0
aI0
aI0
aI0
aI0
asg20
F0
sg21
I01
sg22
Nsg23
g24
sg25
F100
sg26
S'v7I6&Ie$KOQXbfK5UgV#kxa%xJ3y$t5V'
p466
sg28
S'Error at Chromosome_0|math range error'
p467
ssg30
Nsg31
I0
sg32
(lp468
g1
(g34
g3
NtRp469
(dp470
g37
F0.10000000000000001
sg38
(lp471
S'0'
aS'1'
asg40
(lp472
S'0'
aS'0'
aS'1'
aS'0'
aS'0'
aS'0'
aS'0'
aS'0'
aS'0'
aS'1'
aS'0'
aS'0'
aS'1'
aS'1'
aS'0'
aS'0'
aS'0'
aS'1'
aS'0'
aS'1'
aS'0'
aS'1'
aS'0'
aS'1'
aS'0'
aS'1'
aS'1'
aS'0'
aS'0'
aS'0'
asbasg42
g43
sbag1
(g9
g3
NtRp473
(dp474
g12
(dp475
g14
g15
sg16
F100
sg17
F100
sg18
(lp476
F13309369747543.338
aF2.1006052018952572e+25
aF1135039766.5300772
aF11012.232920103323
aF1
aF0.64201499201199974
aF111929734.15009695
aF-1.2283850771565712
aF4.052356840206249e+72
aF4.052356840206249e+72
aF1.2415092993128409
aF1.7900755374831639e+132
aF-1.2196334160793014
aI0
aI0
aF1.5430806348152437
aF1
aI0
aI0
aI0
aI0
aI0
aI0
aI0
aI0
aI0
aI0
aI0
aI0
aI0
aI0
aI0
aI0
aI0
aI0
aI0
aI0
aI0
aI0
aI0
aI0
aI0
aI0
aI0
aI0
aI0
aI0
aI0
aI0
aI0
aI0
aI0
aI0
aI0
aI0
aI0
aI0
aI0
aI0
aI0
aI0
aI0
aI0
aI0
aI0
aI0
aI0
aI0
aI0
aI0
aI0
aI0
aI0
aI0
aI0
aI0
aI0
aI0
aI0
aI0
aI0
aI0
aI0
aI0
aI0
aI0
aI0
aI0
aI0
aI0
aI0
aI0
aI0
aI0
aI0
aI0
aI0
aI0
aI0
aI0
aI0
aI0
aI0
aI0
aI0
aI0
aI0
aI0
aI0
aI0
aI0
aI0
aI0
aI0
aI0
aI0
aI0
aI0
aI0
aI0
aI0
aI0
aI0
aI0
aI0
aI0
aI0
aI0
aI0
aI0
aI0
aI0
aI0
aI0
aI0
aI0
aI0
aI0
aI0
aI0
aI0
aI0
aI0
aI0
aI0
aI0
aI0
aI0
aI0
aI0
aI0
aI0
aI0
aI0
aI0
aI0
aI0
aI0
aI0
aI0
aI0
aI0
aI0
aI0
aI0
aI0
aI0
aI0
aI0
aI0
aI0
aI0
aI0
aI0
aI0
aI0
aI0
aI0
aI0
aI0
aI0
aI0
aI0
aI0
aI0
aI0
aI0
aI0
aI0
aI0
aI0
aI0
aI0
aI0
aI0
aI0
aI0
aI0
aI0
aI0
asg20
F0
sg21
I01
sg22
Nsg23
g24
sg25
F100
sg26
S'3kuVkk9j%rXVJ$$>5EI7meyKmpYN$V$z'
p477
sg28
S'Error at Chromosome_0|math range error'
p478
ssg30
Nsg31
I0
sg32
(lp479
g1
(g34
g3
NtRp480
(dp481
g37
F0.10000000000000001
sg38
(lp482
S'0'
aS'1'
asg40
(lp483
S'1'
aS'1'
aS'0'
aS'0'
aS'0'
aS'0'
aS'1'
aS'1'
aS'1'
aS'0'
aS'1'
aS'0'
aS'0'
aS'1'
aS'1'
aS'0'
aS'0'
aS'0'
aS'0'
aS'1'
aS'0'
aS'1'
aS'1'
aS'1'
aS'1'
aS'1'
aS'1'
aS'0'
aS'0'
aS'0'
asbasg42
g43
sbag1
(g9
g3
NtRp484
(dp485
g12
(dp486
g14
g15
sg16
F100
sg17
F100
sg18
(lp487
F29947.07084924807
aF10.484038170631649
aF0.56626997596147965
aI0
aI0
aF1
aF1.0017816186463011
aF-0.95211971797295736
aF1.5430806348152437
aI0
aF1
aF3.7621956910836314
aF1.102967080307655
aF1.0038186117572763
aI0
aF1.0114416779960145
aF0
aF1.5430806348152437
aF1.1511285919839405
aI0
aF1.0094229500384166
aI0
aI0
aI0
aI0
aF1.5430806348152437
aI0
aI0
aI0
aI0
aI0
aI0
aI0
aI0
aI0
aI0
aI0
aI0
aI0
aI0
aI0
aI0
aI0
aI0
aI0
aI0
aI0
aI0
aI0
aI0
aI0
aI0
aI0
aI0
aI0
aI0
aI0
aI0
aI0
aI0
aI0
aI0
aI0
aI0
aI0
aI0
aI0
aI0
aI0
aI0
aI0
aI0
aI0
aI0
aI0
aI0
aI0
aI0
aI0
aI0
aI0
aI0
aI0
aI0
aI0
aI0
aI0
aI0
aI0
aI0
aI0
aI0
aI0
aI0
aI0
aI0
aI0
aI0
aI0
aI0
aI0
aI0
aI0
aI0
aI0
aI0
aI0
aI0
aI0
aI0
aI0
aI0
aI0
aI0
aI0
aI0
aI0
aI0
aI0
aI0
aI0
aI0
aI0
aI0
aI0
aI0
aI0
aI0
aI0
aI0
aI0
aI0
aI0
aI0
aI0
aI0
aI0
aI0
aI0
aI0
aI0
aI0
aI0
aI0
aI0
aI0
aI0
aI0
aI0
aI0
aI0
aI0
aI0
aI0
aI0
aI0
aI0
aI0
aI0
aI0
aI0
aI0
aI0
aI0
aI0
aI0
aI0
aI0
aI0
aI0
aI0
aI0
aI0
aI0
aI0
aI0
aI0
aI0
aI0
aI0
aI0
aI0
aI0
aI0
aI0
aI0
aI0
aI0
aI0
aI0
aI0
aI0
aI0
aI0
aI0
aI0
aI0
aI0
aI0
aI0
asg20
F0
sg21
I01
sg22
Nsg23
g24
sg25
F100
sg26
S'$FiAANAMLHddm=?p1dCZdL2j%3QkIcMM'
p488
sg28
S'Error at Chromosome_0|math range error'
p489
ssg30
Nsg31
I0
sg32
(lp490
g1
(g34
g3
NtRp491
(dp492
g37
F0.10000000000000001
sg38
(lp493
S'0'
aS'1'
asg40
(lp494
S'1'
aS'1'
aS'1'
aS'1'
aS'0'
aS'0'
aS'0'
aS'1'
aS'0'
aS'1'
aS'1'
aS'1'
aS'1'
aS'1'
aS'0'
aS'1'
aS'0'
aS'1'
aS'0'
aS'1'
aS'0'
aS'0'
aS'1'
aS'0'
aS'1'
aS'1'
aS'1'
aS'0'
aS'0'
aS'0'
asbasg42
g43
sbag1
(g9
g3
NtRp495
(dp496
g12
(dp497
g14
g15
sg16
F100
sg17
F100
sg18
(lp498
F1.8717980701570587
aF20.089914834699051
aF-5.3816091715870193
aF1.4279039171713013
aF0.57090216350227885
aF37009.20500099934
aF1.4461728085856087
aF1.2102275731579562e+21
aF0.51597735612015083
aF0.91263657596321157
aF0.43979766124265846
aF2.4463520074491623
aF0.54308062997070339
aF0.72239532246220872
aF0.98510947170120056
aI0
aI0
aI0
aF0
aI0
aI0
aI0
aI0
aI0
aI0
aI0
aI0
aI0
aI0
aI0
aI0
aI0
aI0
aI0
aI0
aI0
aI0
aI0
aI0
aI0
aI0
aI0
aI0
aI0
aI0
aI0
aI0
aI0
aI0
aI0
aI0
aI0
aI0
aI0
aI0
aI0
aI0
aI0
aI0
aI0
aI0
aI0
aI0
aI0
aI0
aI0
aI0
aI0
aI0
aI0
aI0
aI0
aI0
aI0
aI0
aI0
aI0
aI0
aI0
aI0
aI0
aI0
aI0
aI0
aI0
aI0
aI0
aI0
aI0
aI0
aI0
aI0
aI0
aI0
aI0
aI0
aI0
aI0
aI0
aI0
aI0
aI0
aI0
aI0
aI0
aI0
aI0
aI0
aI0
aI0
aI0
aI0
aI0
aI0
aI0
aI0
aI0
aI0
aI0
aI0
aI0
aI0
aI0
aI0
aI0
aI0
aI0
aI0
aI0
aI0
aI0
aI0
aI0
aI0
aI0
aI0
aI0
aI0
aI0
aI0
aI0
aI0
aI0
aI0
aI0
aI0
aI0
aI0
aI0
aI0
aI0
aI0
aI0
aI0
aI0
aI0
aI0
aI0
aI0
aI0
aI0
aI0
aI0
aI0
aI0
aI0
aI0
aI0
aI0
aI0
aI0
aI0
aI0
aI0
aI0
aI0
aI0
aI0
aI0
aI0
aI0
aI0
aI0
aI0
aI0
aI0
aI0
aI0
aI0
aI0
aI0
aI0
aI0
aI0
aI0
aI0
aI0
aI0
aI0
aI0
asg20
F0
sg21
I01
sg22
Nsg23
g24
sg25
F100
sg26
S't91x@wPc39cCCcF=7F<nMbdC5%NUYqoB'
p499
sg28
S'Error at Chromosome_0|math range error'
p500
ssg30
Nsg31
I0
sg32
(lp501
g1
(g34
g3
NtRp502
(dp503
g37
F0.10000000000000001
sg38
(lp504
S'0'
aS'1'
asg40
(lp505
S'1'
aS'0'
aS'1'
aS'1'
aS'0'
aS'1'
aS'1'
aS'0'
aS'0'
aS'1'
aS'0'
aS'0'
aS'0'
aS'0'
aS'1'
aS'0'
aS'1'
aS'0'
aS'1'
aS'0'
aS'0'
aS'0'
aS'0'
aS'1'
aS'1'
aS'0'
aS'1'
aS'0'
aS'0'
aS'0'
asbasg42
g43
sbag1
(g9
g3
NtRp506
(dp507
g12
(dp508
g14
g15
sg16
F100
sg17
F100
sg18
(lp509
F0
aF3.2540397745657748
aF-1.8450003215916162
aF11
aI0
aF2.3209717239127605e+20
aF40602.145563739068
aF1549.6406705075015
aI0
aI0
aF5343237290762.2314
aI0
aI-2
aI0
aI0
aF0
aI0
aI0
aI0
aI0
aI0
aI0
aI0
aI0
aI0
aI0
aI0
aI0
aI0
aI0
aI0
aI0
aI0
aI0
aI0
aI0
aI0
aI0
aI0
aI0
aI0
aI0
aI0
aI0
aI0
aI0
aI0
aI0
aI0
aI0
aI0
aI0
aI0
aI0
aI0
aI0
aI0
aI0
aI0
aI0
aI0
aI0
aI0
aI0
aI0
aI0
aI0
aI0
aI0
aI0
aI0
aI0
aI0
aI0
aI0
aI0
aI0
aI0
aI0
aI0
aI0
aI0
aI0
aI0
aI0
aI0
aI0
aI0
aI0
aI0
aI0
aI0
aI0
aI0
aI0
aI0
aI0
aI0
aI0
aI0
aI0
aI0
aI0
aI0
aI0
aI0
aI0
aI0
aI0
aI0
aI0
aI0
aI0
aI0
aI0
aI0
aI0
aI0
aI0
aI0
aI0
aI0
aI0
aI0
aI0
aI0
aI0
aI0
aI0
aI0
aI0
aI0
aI0
aI0
aI0
aI0
aI0
aI0
aI0
aI0
aI0
aI0
aI0
aI0
aI0
aI0
aI0
aI0
aI0
aI0
aI0
aI0
aI0
aI0
aI0
aI0
aI0
aI0
aI0
aI0
aI0
aI0
aI0
aI0
aI0
aI0
aI0
aI0
aI0
aI0
aI0
aI0
aI0
aI0
aI0
aI0
aI0
aI0
aI0
aI0
aI0
aI0
aI0
aI0
aI0
aI0
aI0
aI0
aI0
aI0
aI0
aI0
aI0
aI0
aI0
aI0
aI0
aI0
aI0
aI0
asg20
F0
sg21
I01
sg22
Nsg23
g24
sg25
F100
sg26
S'FAps3Dv=BzMt#Jzj&o$cyl?=3xkEd7Jc'
p510
sg28
S'Error at Chromosome_0|math range error'
p511
ssg30
Nsg31
I0
sg32
(lp512
g1
(g34
g3
NtRp513
(dp514
g37
F0.10000000000000001
sg38
(lp515
S'0'
aS'1'
asg40
(lp516
S'1'
aS'0'
aS'1'
aS'1'
aS'1'
aS'1'
aS'0'
aS'1'
aS'0'
aS'1'
aS'0'
aS'0'
aS'1'
aS'0'
aS'0'
aS'0'
aS'0'
aS'1'
aS'0'
aS'1'
aS'0'
aS'0'
aS'0'
aS'0'
aS'0'
aS'1'
aS'0'
aS'1'
aS'0'
aS'0'
asbasg42
g43
sbag1
(g9
g3
NtRp517
(dp518
g12
(dp519
g14
g15
sg16
F100
sg17
F100
sg18
(lp520
F37.004994770633488
aF1.7021380249658704e+29
aF-8.9872764785781101e-10
aF3.5065684676768651e+263
aF0.56626997596147965
aF111
aF1.5430806348152437
aF1
aF1.5430806348152437
aF1
aF242582617.70489514
aF1.1769263341851014e+17
aF0
aI0
aI0
aI0
aF167.87857252384407
aI0
aI0
aI0
aI0
aI0
aI0
aI0
aI0
aI0
aI0
aI0
aI0
aI0
aI0
aI0
aI0
aI0
aI0
aI0
aI0
aI0
aI0
aI0
aI0
aI0
aI0
aI0
aI0
aI0
aI0
aI0
aI0
aI0
aI0
aI0
aI0
aI0
aI0
aI0
aI0
aI0
aI0
aI0
aI0
aI0
aI0
aI0
aI0
aI0
aI0
aI0
aI0
aI0
aI0
aI0
aI0
aI0
aI0
aI0
aI0
aI0
aI0
aI0
aI0
aI0
aI0
aI0
aI0
aI0
aI0
aI0
aI0
aI0
aI0
aI0
aI0
aI0
aI0
aI0
aI0
aI0
aI0
aI0
aI0
aI0
aI0
aI0
aI0
aI0
aI0
aI0
aI0
aI0
aI0
aI0
aI0
aI0
aI0
aI0
aI0
aI0
aI0
aI0
aI0
aI0
aI0
aI0
aI0
aI0
aI0
aI0
aI0
aI0
aI0
aI0
aI0
aI0
aI0
aI0
aI0
aI0
aI0
aI0
aI0
aI0
aI0
aI0
aI0
aI0
aI0
aI0
aI0
aI0
aI0
aI0
aI0
aI0
aI0
aI0
aI0
aI0
aI0
aI0
aI0
aI0
aI0
aI0
aI0
aI0
aI0
aI0
aI0
aI0
aI0
aI0
aI0
aI0
aI0
aI0
aI0
aI0
aI0
aI0
aI0
aI0
aI0
aI0
aI0
aI0
aI0
aI0
aI0
aI0
aI0
aI0
aI0
aI0
aI0
aI0
aI0
aI0
aI0
aI0
asg20
F0
sg21
I01
sg22
Nsg23
g24
sg25
F100
sg26
S'IF3@2>>kVJ5@D9fJ?wL6V%CHPHaMtVQD'
p521
sg28
S'Error at Chromosome_0|math range error'
p522
ssg30
Nsg31
I0
sg32
(lp523
g1
(g34
g3
NtRp524
(dp525
g37
F0.10000000000000001
sg38
(lp526
S'0'
aS'1'
asg40
(lp527
S'0'
aS'0'
aS'0'
aS'0'
aS'1'
aS'0'
aS'0'
aS'1'
aS'1'
aS'1'
aS'0'
aS'0'
aS'1'
aS'1'
aS'1'
aS'1'
aS'1'
aS'1'
aS'1'
aS'1'
aS'0'
aS'0'
aS'0'
aS'0'
aS'1'
aS'0'
aS'0'
aS'1'
aS'0'
aS'0'
asbasg42
g43
sbag1
(g9
g3
NtRp528
(dp529
g12
(dp530
g14
g15
sg16
F100
sg17
F100
sg18
(lp531
F196.76159458877734
aF811.98704305453509
aF242582627.70489514
aF4.052356840206249e+72
aF1.5430806348152437
aF29957.070865949761
aF34821.19080544616
aF6.2618158542110685e+28
aF11013.232920103323
aI0
aF79.512614667151396
aF723128532145.73755
aF1
aF1
aI0
aF-1
aF1.2577193354595834e+30
aF11012.232920103323
aI0
aI0
aF6.1020164715892042e+38
aF1.5430806348152437
aI0
aI0
aI0
aF51530.722096349724
aI0
aI0
aI0
aI0
aI0
aI0
aI0
aI0
aI0
aI0
aI0
aI0
aI0
aI0
aI0
aI0
aI0
aI0
aI0
aI0
aI0
aI0
aI0
aI0
aI0
aI0
aI0
aI0
aI0
aI0
aI0
aI0
aI0
aI0
aI0
aI0
aI0
aI0
aI0
aI0
aI0
aI0
aI0
aI0
aI0
aI0
aI0
aI0
aI0
aI0
aI0
aI0
aI0
aI0
aI0
aI0
aI0
aI0
aI0
aI0
aI0
aI0
aI0
aI0
aI0
aI0
aI0
aI0
aI0
aI0
aI0
aI0
aI0
aI0
aI0
aI0
aI0
aI0
aI0
aI0
aI0
aI0
aI0
aI0
aI0
aI0
aI0
aI0
aI0
aI0
aI0
aI0
aI0
aI0
aI0
aI0
aI0
aI0
aI0
aI0
aI0
aI0
aI0
aI0
aI0
aI0
aI0
aI0
aI0
aI0
aI0
aI0
aI0
aI0
aI0
aI0
aI0
aI0
aI0
aI0
aI0
aI0
aI0
aI0
aI0
aI0
aI0
aI0
aI0
aI0
aI0
aI0
aI0
aI0
aI0
aI0
aI0
aI0
aI0
aI0
aI0
aI0
aI0
aI0
aI0
aI0
aI0
aI0
aI0
aI0
aI0
aI0
aI0
aI0
aI0
aI0
aI0
aI0
aI0
aI0
aI0
aI0
aI0
aI0
aI0
aI0
aI0
aI0
aI0
aI0
aI0
aI0
aI0
aI0
asg20
F0
sg21
I01
sg22
Nsg23
g24
sg25
F100
sg26
S'nQOwgAN&3x2JCajlDRYebyXX&qhEfCLM'
p532
sg28
S'Error at Chromosome_0|math range error'
p533
ssg30
Nsg31
I0
sg32
(lp534
g1
(g34
g3
NtRp535
(dp536
g37
F0.10000000000000001
sg38
(lp537
S'0'
aS'1'
asg40
(lp538
S'0'
aS'1'
aS'0'
aS'0'
aS'1'
aS'0'
aS'0'
aS'0'
aS'0'
aS'1'
aS'1'
aS'1'
aS'1'
aS'0'
aS'0'
aS'1'
aS'1'
aS'1'
aS'0'
aS'0'
aS'1'
aS'0'
aS'0'
aS'0'
aS'1'
aS'1'
aS'0'
aS'1'
aS'0'
aS'0'
asbasg42
g43
sbag1
(g9
g3
NtRp539
(dp540
g12
(dp541
g14
g15
sg16
F100
sg17
F100
sg18
(lp542
F0.99999999944210638
aF0.41347670990383567
aF1
aF500443.53242130659
aI0
aF103655.96640331318
aF133195745713.73212
aF8.2384058440442356
aF51530.721846707049
aF29937.070865949761
aF5.7100369490784212e+25
aF0
aF1
aI0
aI0
aI0
aF1.5430806348152437
aI0
aI0
aI0
aI0
aI0
aI0
aI0
aI0
aI0
aI0
aI0
aI0
aI0
aI0
aI0
aI0
aI0
aI0
aI0
aI0
aI0
aI0
aI0
aI0
aI0
aI0
aI0
aI0
aI0
aI0
aI0
aI0
aI0
aI0
aI0
aI0
aI0
aI0
aI0
aI0
aI0
aI0
aI0
aI0
aI0
aI0
aI0
aI0
aI0
aI0
aI0
aI0
aI0
aI0
aI0
aI0
aI0
aI0
aI0
aI0
aI0
aI0
aI0
aI0
aI0
aI0
aI0
aI0
aI0
aI0
aI0
aI0
aI0
aI0
aI0
aI0
aI0
aI0
aI0
aI0
aI0
aI0
aI0
aI0
aI0
aI0
aI0
aI0
aI0
aI0
aI0
aI0
aI0
aI0
aI0
aI0
aI0
aI0
aI0
aI0
aI0
aI0
aI0
aI0
aI0
aI0
aI0
aI0
aI0
aI0
aI0
aI0
aI0
aI0
aI0
aI0
aI0
aI0
aI0
aI0
aI0
aI0
aI0
aI0
aI0
aI0
aI0
aI0
aI0
aI0
aI0
aI0
aI0
aI0
aI0
aI0
aI0
aI0
aI0
aI0
aI0
aI0
aI0
aI0
aI0
aI0
aI0
aI0
aI0
aI0
aI0
aI0
aI0
aI0
aI0
aI0
aI0
aI0
aI0
aI0
aI0
aI0
aI0
aI0
aI0
aI0
aI0
aI0
aI0
aI0
aI0
aI0
aI0
aI0
aI0
aI0
aI0
aI0
aI0
aI0
aI0
aI0
aI0
asg20
F0
sg21
I01
sg22
Nsg23
g24
sg25
F100
sg26
S'JywNqRjz3s>jxrdX3TIfUuScUoqd4EiU'
p543
sg28
S'Error at Chromosome_0|math range error'
p544
ssg30
Nsg31
I0
sg32
(lp545
g1
(g34
g3
NtRp546
(dp547
g37
F0.10000000000000001
sg38
(lp548
S'0'
aS'1'
asg40
(lp549
S'0'
aS'0'
aS'0'
aS'1'
aS'0'
aS'1'
aS'0'
aS'0'
aS'0'
aS'1'
aS'1'
aS'0'
aS'1'
aS'1'
aS'1'
aS'0'
aS'0'
aS'0'
aS'0'
aS'1'
aS'1'
aS'0'
aS'1'
aS'0'
aS'1'
aS'1'
aS'0'
aS'1'
aS'0'
aS'0'
asbasg42
g43
sbag1
(g9
g3
NtRp550
(dp551
g12
(dp552
g14
g15
sg16
F100
sg17
F100
sg18
(lp553
F1.4241527447764544
aF0.42794027714359295
aF1.1769263341851008e+17
aF5.7100369490784212e+25
aF167.87857252384407
aF4.9218980388525069e+23
aF0.99999999944210638
aF1.5430806348152437
aF2.4463520074491623
aI0
aF1.1509801878058601
aF1.5430806348152437
aI0
aI0
aI0
aF5.8163792453876901
aI0
aI0
aI0
aI0
aI0
aI0
aI0
aI0
aI0
aI0
aI0
aI0
aI0
aI0
aI0
aI0
aI0
aI0
aI0
aI0
aI0
aI0
aI0
aI0
aI0
aI0
aI0
aI0
aI0
aI0
aI0
aI0
aI0
aI0
aI0
aI0
aI0
aI0
aI0
aI0
aI0
aI0
aI0
aI0
aI0
aI0
aI0
aI0
aI0
aI0
aI0
aI0
aI0
aI0
aI0
aI0
aI0
aI0
aI0
aI0
aI0
aI0
aI0
aI0
aI0
aI0
aI0
aI0
aI0
aI0
aI0
aI0
aI0
aI0
aI0
aI0
aI0
aI0
aI0
aI0
aI0
aI0
aI0
aI0
aI0
aI0
aI0
aI0
aI0
aI0
aI0
aI0
aI0
aI0
aI0
aI0
aI0
aI0
aI0
aI0
aI0
aI0
aI0
aI0
aI0
aI0
aI0
aI0
aI0
aI0
aI0
aI0
aI0
aI0
aI0
aI0
aI0
aI0
aI0
aI0
aI0
aI0
aI0
aI0
aI0
aI0
aI0
aI0
aI0
aI0
aI0
aI0
aI0
aI0
aI0
aI0
aI0
aI0
aI0
aI0
aI0
aI0
aI0
aI0
aI0
aI0
aI0
aI0
aI0
aI0
aI0
aI0
aI0
aI0
aI0
aI0
aI0
aI0
aI0
aI0
aI0
aI0
aI0
aI0
aI0
aI0
aI0
aI0
aI0
aI0
aI0
aI0
aI0
aI0
aI0
aI0
aI0
aI0
aI0
aI0
aI0
aI0
aI0
aI0
asg20
F0
sg21
I01
sg22
Nsg23
g24
sg25
F100
sg26
S'GzrcvSINCV3Je2GgCmVdH6yH?MddkgSg'
p554
sg28
S'Error at Chromosome_0|math range error'
p555
ssg30
Nsg31
I0
sg32
(lp556
g1
(g34
g3
NtRp557
(dp558
g37
F0.10000000000000001
sg38
(lp559
S'0'
aS'1'
asg40
(lp560
S'0'
aS'0'
aS'1'
aS'1'
aS'0'
aS'0'
aS'0'
aS'0'
aS'0'
aS'1'
aS'0'
aS'1'
aS'1'
aS'0'
aS'0'
aS'1'
aS'1'
aS'0'
aS'0'
aS'1'
aS'1'
aS'0'
aS'1'
aS'0'
aS'0'
aS'0'
aS'0'
aS'0'
aS'0'
aS'0'
asbasg42
g43
sbag1
(g9
g3
NtRp561
(dp562
g12
(dp563
g14
g15
sg16
F100
sg17
F100
sg18
(lp564
F0.890460480113897
aF-0.63269258379643822
aF35.816379245387694
aI10
aI-1
aF-1.7615941559557649
aF18.00795260225533
aF32.446352007449164
aF39.816379245387694
aI28
aF-1.8437326197394763
aF30
aI60
aI0
aI0
aI-8
aI0
aI0
aI0
aI0
aI0
aI0
aI0
aI0
aI0
aI0
aI0
aI0
aI0
aI0
aI0
aI0
aI0
aI0
aI0
aI0
aI0
aI0
aI0
aI0
aI0
aI0
aI0
aI0
aI0
aI0
aI0
aI0
aI0
aI0
aI0
aI0
aI0
aI0
aI0
aI0
aI0
aI0
aI0
aI0
aI0
aI0
aI0
aI0
aI0
aI0
aI0
aI0
aI0
aI0
aI0
aI0
aI0
aI0
aI0
aI0
aI0
aI0
aI0
aI0
aI0
aI0
aI0
aI0
aI0
aI0
aI0
aI0
aI0
aI0
aI0
aI0
aI0
aI0
aI0
aI0
aI0
aI0
aI0
aI0
aI0
aI0
aI0
aI0
aI0
aI0
aI0
aI0
aI0
aI0
aI0
aI0
aI0
aI0
aI0
aI0
aI0
aI0
aI0
aI0
aI0
aI0
aI0
aI0
aI0
aI0
aI0
aI0
aI0
aI0
aI0
aI0
aI0
aI0
aI0
aI0
aI0
aI0
aI0
aI0
aI0
aI0
aI0
aI0
aI0
aI0
aI0
aI0
aI0
aI0
aI0
aI0
aI0
aI0
aI0
aI0
aI0
aI0
aI0
aI0
aI0
aI0
aI0
aI0
aI0
aI0
aI0
aI0
aI0
aI0
aI0
aI0
aI0
aI0
aI0
aI0
aI0
aI0
aI0
aI0
aI0
aI0
aI0
aI0
aI0
aI0
aI0
aI0
aI0
aI0
aI0
aI0
aI0
aI0
aI0
aI0
aI0
aI0
aI0
aI0
asg20
F0
sg21
I01
sg22
Nsg23
g24
sg25
F100
sg26
S'Tgx?J>n&tJIZcR58kSRo4HGXg8yXtbRk'
p565
sg28
S'Error at Chromosome_0|math range error'
p566
ssg30
Nsg31
I0
sg32
(lp567
g1
(g34
g3
NtRp568
(dp569
g37
F0.10000000000000001
sg38
(lp570
S'0'
aS'1'
asg40
(lp571
S'1'
aS'0'
aS'0'
aS'1'
aS'0'
aS'1'
aS'0'
aS'0'
aS'1'
aS'0'
aS'0'
aS'1'
aS'1'
aS'0'
aS'1'
aS'0'
aS'1'
aS'1'
aS'0'
aS'1'
aS'1'
aS'0'
aS'0'
aS'0'
aS'0'
aS'1'
aS'0'
aS'0'
aS'0'
aS'0'
asbasg42
g43
sbag1
(g9
g3
NtRp572
(dp573
g12
(dp574
g14
g15
sg16
F100
sg17
F100
sg18
(lp575
F242582689.70489514
aF11012.232874703386
aF29494.59459375923
aF29494.59459375923
aF5343237290762.2314
aF11897.018081380269
aF-7.3579850079880007
aF29919.343124066672
aI0
aI0
aF29937.070865949761
aF0.41246124841578535
aF0.64201499201199974
aF11022.232920103323
aI0
aF1.4415580723239825
aF0.91263657596321157
aF0.41347670990383567
aF11013.232920103323
aI0
aF0
aI0
aI0
aI0
aI0
aI0
aI0
aI0
aI0
aI0
aI0
aI0
aI0
aI0
aI0
aI0
aI0
aI0
aI0
aI0
aI0
aI0
aI0
aI0
aI0
aI0
aI0
aI0
aI0
aI0
aI0
aI0
aI0
aI0
aI0
aI0
aI0
aI0
aI0
aI0
aI0
aI0
aI0
aI0
aI0
aI0
aI0
aI0
aI0
aI0
aI0
aI0
aI0
aI0
aI0
aI0
aI0
aI0
aI0
aI0
aI0
aI0
aI0
aI0
aI0
aI0
aI0
aI0
aI0
aI0
aI0
aI0
aI0
aI0
aI0
aI0
aI0
aI0
aI0
aI0
aI0
aI0
aI0
aI0
aI0
aI0
aI0
aI0
aI0
aI0
aI0
aI0
aI0
aI0
aI0
aI0
aI0
aI0
aI0
aI0
aI0
aI0
aI0
aI0
aI0
aI0
aI0
aI0
aI0
aI0
aI0
aI0
aI0
aI0
aI0
aI0
aI0
aI0
aI0
aI0
aI0
aI0
aI0
aI0
aI0
aI0
aI0
aI0
aI0
aI0
aI0
aI0
aI0
aI0
aI0
aI0
aI0
aI0
aI0
aI0
aI0
aI0
aI0
aI0
aI0
aI0
aI0
aI0
aI0
aI0
aI0
aI0
aI0
aI0
aI0
aI0
aI0
aI0
aI0
aI0
aI0
aI0
aI0
aI0
aI0
aI0
aI0
aI0
aI0
aI0
aI0
aI0
aI0
aI0
aI0
aI0
aI0
aI0
aI0
aI0
asg20
F0
sg21
I01
sg22
Nsg23
g24
sg25
F100
sg26
S'3kb#g9gx9@lMuQnNwJkFVnxnxvu56SKB'
p576
sg28
S'Error at Chromosome_0|math range error'
p577
ssg30
Nsg31
I0
sg32
(lp578
g1
(g34
g3
NtRp579
(dp580
g37
F0.10000000000000001
sg38
(lp581
S'0'
aS'1'
asg40
(lp582
S'1'
aS'0'
aS'0'
aS'1'
aS'1'
aS'1'
aS'1'
aS'0'
aS'0'
aS'1'
aS'0'
aS'0'
aS'0'
aS'1'
aS'1'
aS'0'
aS'0'
aS'1'
aS'1'
aS'0'
aS'0'
aS'1'
aS'1'
aS'1'
aS'0'
aS'1'
aS'1'
aS'0'
aS'0'
aS'0'
asbasg42
g43
sbag1
(g9
g3
NtRp583
(dp584
g12
(dp585
g14
g15
sg16
F100
sg17
F100
sg18
(lp586
F29946.070865949761
aF5.2590848795670121e+68
aF19.91862274488404
aF29957.070865949761
aF2.4463520074491623
aF3697738.8338995399
aF1
aI0
aI0
aF1
aF1
aI0
aI0
aI0
aI0
aI0
aI0
aI0
aI0
aI0
aI0
aI0
aI0
aI0
aI0
aI0
aI0
aI0
aI0
aI0
aI0
aI0
aI0
aI0
aI0
aI0
aI0
aI0
aI0
aI0
aI0
aI0
aI0
aI0
aI0
aI0
aI0
aI0
aI0
aI0
aI0
aI0
aI0
aI0
aI0
aI0
aI0
aI0
aI0
aI0
aI0
aI0
aI0
aI0
aI0
aI0
aI0
aI0
aI0
aI0
aI0
aI0
aI0
aI0
aI0
aI0
aI0
aI0
aI0
aI0
aI0
aI0
aI0
aI0
aI0
aI0
aI0
aI0
aI0
aI0
aI0
aI0
aI0
aI0
aI0
aI0
aI0
aI0
aI0
aI0
aI0
aI0
aI0
aI0
aI0
aI0
aI0
aI0
aI0
aI0
aI0
aI0
aI0
aI0
aI0
aI0
aI0
aI0
aI0
aI0
aI0
aI0
aI0
aI0
aI0
aI0
aI0
aI0
aI0
aI0
aI0
aI0
aI0
aI0
aI0
aI0
aI0
aI0
aI0
aI0
aI0
aI0
aI0
aI0
aI0
aI0
aI0
aI0
aI0
aI0
aI0
aI0
aI0
aI0
aI0
aI0
aI0
aI0
aI0
aI0
aI0
aI0
aI0
aI0
aI0
aI0
aI0
aI0
aI0
aI0
aI0
aI0
aI0
aI0
aI0
aI0
aI0
aI0
aI0
aI0
aI0
aI0
aI0
aI0
aI0
aI0
aI0
aI0
aI0
aI0
aI0
aI0
aI0
aI0
aI0
aI0
aI0
aI0
aI0
aI0
asg20
F0
sg21
I01
sg22
Nsg23
g24
sg25
F100
sg26
S'QYd<HeKRE8sqfWL#S>>hAvCBwvEEVp&f'
p587
sg28
S'Error at Chromosome_0|math range error'
p588
ssg30
Nsg31
I0
sg32
(lp589
g1
(g34
g3
NtRp590
(dp591
g37
F0.10000000000000001
sg38
(lp592
S'0'
aS'1'
asg40
(lp593
S'0'
aS'1'
aS'0'
aS'1'
aS'1'
aS'1'
aS'1'
aS'1'
aS'0'
aS'0'
aS'1'
aS'1'
aS'1'
aS'1'
aS'0'
aS'1'
aS'0'
aS'1'
aS'0'
aS'0'
aS'0'
aS'0'
aS'1'
aS'0'
aS'0'
aS'0'
aS'1'
aS'1'
aS'0'
aS'0'
asbasg42
g43
sbag1
(g9
g3
NtRp594
(dp595
g12
(dp596
g14
g15
sg16
F100
sg17
F100
sg18
(lp597
F41.582471294713599
aF125.44627647489057
aF49
aF1
aF1
aF0.91263657596321157
aF2791658132.8875766
aF4051.5420254925939
aF-0.94702942598833617
aF1
aF-0.95974603171341755
aF1.5526640981685005
aF1.1548657661023032
aF29936.070865949761
aI0
aF-0.96117006287134388
aF743636620.08462918
aF893947320.40126801
aF4050.5420254925939
aI0
aF1.3801759330118384
aF-3
aI-5
aF1.5430806348152437
aI0
aI0
aI0
aI0
aI0
aI0
aI0
aI0
aI0
aI0
aI0
aI0
aI0
aI0
aI0
aI0
aI0
aI0
aI0
aI0
aI0
aI0
aI0
aI0
aI0
aI0
aI0
aI0
aI0
aI0
aI0
aI0
aI0
aI0
aI0
aI0
aI0
aI0
aI0
aI0
aI0
aI0
aI0
aI0
aI0
aI0
aI0
aI0
aI0
aI0
aI0
aI0
aI0
aI0
aI0
aI0
aI0
aI0
aI0
aI0
aI0
aI0
aI0
aI0
aI0
aI0
aI0
aI0
aI0
aI0
aI0
aI0
aI0
aI0
aI0
aI0
aI0
aI0
aI0
aI0
aI0
aI0
aI0
aI0
aI0
aI0
aI0
aI0
aI0
aI0
aI0
aI0
aI0
aI0
aI0
aI0
aI0
aI0
aI0
aI0
aI0
aI0
aI0
aI0
aI0
aI0
aI0
aI0
aI0
aI0
aI0
aI0
aI0
aI0
aI0
aI0
aI0
aI0
aI0
aI0
aI0
aI0
aI0
aI0
aI0
aI0
aI0
aI0
aI0
aI0
aI0
aI0
aI0
aI0
aI0
aI0
aI0
aI0
aI0
aI0
aI0
aI0
aI0
aI0
aI0
aI0
aI0
aI0
aI0
aI0
aI0
aI0
aI0
aI0
aI0
aI0
aI0
aI0
aI0
aI0
aI0
aI0
aI0
aI0
aI0
aI0
aI0
aI0
aI0
aI0
aI0
aI0
aI0
aI0
aI0
aI0
asg20
F0
sg21
I01
sg22
Nsg23
g24
sg25
F100
sg26
S'$$JvwdIQaBcvZ516SjEIyYOdftrUgKpU'
p598
sg28
S'Error at Chromosome_0|math range error'
p599
ssg30
Nsg31
I0
sg32
(lp600
g1
(g34
g3
NtRp601
(dp602
g37
F0.10000000000000001
sg38
(lp603
S'0'
aS'1'
asg40
(lp604
S'0'
aS'0'
aS'0'
aS'0'
aS'0'
aS'1'
aS'0'
aS'0'
aS'0'
aS'1'
aS'1'
aS'0'
aS'0'
aS'1'
aS'1'
aS'0'
aS'1'
aS'0'
aS'0'
aS'1'
aS'1'
aS'1'
aS'0'
aS'0'
aS'1'
aS'1'
aS'1'
aS'0'
aS'0'
aS'0'
asbasg42
g43
sbag1
(g9
g3
NtRp605
(dp606
g12
(dp607
g14
g15
sg16
F100
sg17
F100
sg18
(lp608
F1.0656465265768134e-08
aF-0.63203803725992291
aF4.052356840206249e+72
aF10
aI0
aF-3.2570667662963289e-05
aF34.446172808585608
aF79.238242562413745
aF178.41536367493498
aI0
aF18.000065456711766
aF81448117983.015198
aF62.446352007449164
aF1
aI0
aI0
aF21
aI0
aF167.87857252384407
aF1
aI10
aI0
aF1.5430806348152437
aI0
aI0
aI0
aF1
aI0
aI0
aI0
aI0
aI0
aI0
aI0
aI0
aI0
aI0
aI0
aI0
aI0
aI0
aI0
aI0
aI0
aI0
aI0
aI0
aI0
aI0
aI0
aI0
aI0
aI0
aI0
aI0
aI0
aI0
aI0
aI0
aI0
aI0
aI0
aI0
aI0
aI0
aI0
aI0
aI0
aI0
aI0
aI0
aI0
aI0
aI0
aI0
aI0
aI0
aI0
aI0
aI0
aI0
aI0
aI0
aI0
aI0
aI0
aI0
aI0
aI0
aI0
aI0
aI0
aI0
aI0
aI0
aI0
aI0
aI0
aI0
aI0
aI0
aI0
aI0
aI0
aI0
aI0
aI0
aI0
aI0
aI0
aI0
aI0
aI0
aI0
aI0
aI0
aI0
aI0
aI0
aI0
aI0
aI0
aI0
aI0
aI0
aI0
aI0
aI0
aI0
aI0
aI0
aI0
aI0
aI0
aI0
aI0
aI0
aI0
aI0
aI0
aI0
aI0
aI0
aI0
aI0
aI0
aI0
aI0
aI0
aI0
aI0
aI0
aI0
aI0
aI0
aI0
aI0
aI0
aI0
aI0
aI0
aI0
aI0
aI0
aI0
aI0
aI0
aI0
aI0
aI0
aI0
aI0
aI0
aI0
aI0
aI0
aI0
aI0
aI0
aI0
aI0
aI0
aI0
aI0
aI0
aI0
aI0
aI0
aI0
aI0
aI0
aI0
aI0
aI0
aI0
aI0
aI0
aI0
aI0
aI0
asg20
F0
sg21
I01
sg22
Nsg23
g24
sg25
F100
sg26
S'ZW=EiP9R?GhQjPZRC5XslT6Iys?1#y85'
p609
sg28
S'Error at Chromosome_0|math range error'
p610
ssg30
Nsg31
I0
sg32
(lp611
g1
(g34
g3
NtRp612
(dp613
g37
F0.10000000000000001
sg38
(lp614
S'0'
aS'1'
asg40
(lp615
S'0'
aS'0'
aS'0'
aS'0'
aS'1'
aS'1'
aS'1'
aS'0'
aS'1'
aS'1'
aS'0'
aS'1'
aS'1'
aS'0'
aS'1'
aS'0'
aS'0'
aS'0'
aS'0'
aS'1'
aS'0'
aS'0'
aS'0'
aS'0'
aS'0'
aS'0'
aS'1'
aS'1'
aS'0'
aS'0'
asbasg42
g43
sbag1
(g9
g3
NtRp616
(dp617
g12
(dp618
g14
g15
sg16
F100
sg17
F100
sg18
(lp619
F-0.43979766124265846
aF0.88562808517002756
aF0.99998225878653857
aI0
aI0
aF-3.4569193651847563
aF35382.7259872836
aF11013.232920103323
aF5142.3151377055601
aI10
aF1.552148966985032e+26
aF7708.1700450058088
aF11023.232920103323
aF0
aF0
aF2.592352764293536e+21
aF127190.43385539316
aF-1.7615941576870282
aI0
aI0
aF1
aF11
aI0
aI0
aI0
aI0
aI0
aI0
aI0
aI0
aI0
aI0
aI0
aI0
aI0
aI0
aI0
aI0
aI0
aI0
aI0
aI0
aI0
aI0
aI0
aI0
aI0
aI0
aI0
aI0
aI0
aI0
aI0
aI0
aI0
aI0
aI0
aI0
aI0
aI0
aI0
aI0
aI0
aI0
aI0
aI0
aI0
aI0
aI0
aI0
aI0
aI0
aI0
aI0
aI0
aI0
aI0
aI0
aI0
aI0
aI0
aI0
aI0
aI0
aI0
aI0
aI0
aI0
aI0
aI0
aI0
aI0
aI0
aI0
aI0
aI0
aI0
aI0
aI0
aI0
aI0
aI0
aI0
aI0
aI0
aI0
aI0
aI0
aI0
aI0
aI0
aI0
aI0
aI0
aI0
aI0
aI0
aI0
aI0
aI0
aI0
aI0
aI0
aI0
aI0
aI0
aI0
aI0
aI0
aI0
aI0
aI0
aI0
aI0
aI0
aI0
aI0
aI0
aI0
aI0
aI0
aI0
aI0
aI0
aI0
aI0
aI0
aI0
aI0
aI0
aI0
aI0
aI0
aI0
aI0
aI0
aI0
aI0
aI0
aI0
aI0
aI0
aI0
aI0
aI0
aI0
aI0
aI0
aI0
aI0
aI0
aI0
aI0
aI0
aI0
aI0
aI0
aI0
aI0
aI0
aI0
aI0
aI0
aI0
aI0
aI0
aI0
aI0
aI0
aI0
aI0
aI0
aI0
aI0
aI0
aI0
aI0
aI0
aI0
aI0
asg20
F0
sg21
I01
sg22
Nsg23
g24
sg25
F100
sg26
S's%Aeo5XjIuI%nS%b5qiWhsHabz&xPA7G'
p620
sg28
S'Error at Chromosome_0|math range error'
p621
ssg30
Nsg31
I0
sg32
(lp622
g1
(g34
g3
NtRp623
(dp624
g37
F0.10000000000000001
sg38
(lp625
S'0'
aS'1'
asg40
(lp626
S'1'
aS'0'
aS'1'
aS'0'
aS'0'
aS'1'
aS'0'
aS'1'
aS'1'
aS'0'
aS'0'
aS'1'
aS'0'
aS'0'
aS'1'
aS'1'
aS'0'
aS'0'
aS'0'
aS'0'
aS'0'
aS'1'
aS'0'
aS'0'
aS'0'
aS'0'
aS'0'
aS'0'
aS'0'
aS'0'
asbasg42
g43
sbag1
(g9
g3
NtRp627
(dp628
g12
(dp629
g14
g15
sg16
F100
sg17
F100
sg18
(lp630
F0.76159415595576485
aF1.5705669977524632
aF1
aI0
aI0
aI0
aF0.78773423581566415
aF1.0889635947895098
aF1
aF1.5430806348152437
aI0
aI0
aF-0.76155602143884882
aF11
aF1.5430806348152437
aI0
aI0
aI-4
aF1
aI0
aI0
aI0
aI0
aI0
aI0
aI0
aI0
aI0
aI0
aI0
aI0
aI0
aI0
aI0
aI0
aI0
aI0
aI0
aI0
aI0
aI0
aI0
aI0
aI0
aI0
aI0
aI0
aI0
aI0
aI0
aI0
aI0
aI0
aI0
aI0
aI0
aI0
aI0
aI0
aI0
aI0
aI0
aI0
aI0
aI0
aI0
aI0
aI0
aI0
aI0
aI0
aI0
aI0
aI0
aI0
aI0
aI0
aI0
aI0
aI0
aI0
aI0
aI0
aI0
aI0
aI0
aI0
aI0
aI0
aI0
aI0
aI0
aI0
aI0
aI0
aI0
aI0
aI0
aI0
aI0
aI0
aI0
aI0
aI0
aI0
aI0
aI0
aI0
aI0
aI0
aI0
aI0
aI0
aI0
aI0
aI0
aI0
aI0
aI0
aI0
aI0
aI0
aI0
aI0
aI0
aI0
aI0
aI0
aI0
aI0
aI0
aI0
aI0
aI0
aI0
aI0
aI0
aI0
aI0
aI0
aI0
aI0
aI0
aI0
aI0
aI0
aI0
aI0
aI0
aI0
aI0
aI0
aI0
aI0
aI0
aI0
aI0
aI0
aI0
aI0
aI0
aI0
aI0
aI0
aI0
aI0
aI0
aI0
aI0
aI0
aI0
aI0
aI0
aI0
aI0
aI0
aI0
aI0
aI0
aI0
aI0
aI0
aI0
aI0
aI0
aI0
aI0
aI0
aI0
aI0
aI0
aI0
aI0
aI0
aI0
aI0
aI0
aI0
aI0
aI0
asg20
F0
sg21
I01
sg22
Nsg23
g24
sg25
F100
sg26
S'T9qe$M@Gq#11@NLflcuS%fHbrKaxJE?t'
p631
sg28
S'Error at Chromosome_0|math range error'
p632
ssg30
Nsg31
I0
sg32
(lp633
g1
(g34
g3
NtRp634
(dp635
g37
F0.10000000000000001
sg38
(lp636
S'0'
aS'1'
asg40
(lp637
S'1'
aS'1'
aS'1'
aS'1'
aS'0'
aS'1'
aS'0'
aS'0'
aS'1'
aS'1'
aS'0'
aS'1'
aS'1'
aS'0'
aS'0'
aS'1'
aS'1'
aS'1'
aS'1'
aS'0'
aS'1'
aS'1'
aS'0'
aS'0'
aS'1'
aS'0'
aS'0'
aS'0'
aS'0'
aS'0'
asbasg42
g43
sbag1
(g9
g3
NtRp638
(dp639
g12
(dp640
g14
g15
sg16
F100
sg17
F100
sg18
(lp641
F0.99999996954003911
aF0.9094403156372407
aF1.5430806348152437
aF1
aI0
aF0.76159415316682089
aF4.052356840206249e+72
aF6.2669563480430354e+19
aF0
aI0
aF40.99999999944211
aF1123691051.2776711
aF242582607.70489514
aF10
aI0
aF1.028553532011165
aF5.3624264315481148e+72
aF0
aI0
aI0
aF1.028553532011165
aF1
aI0
aI0
aI0
aF1
aI0
aI0
aI0
aI0
aI0
aI0
aI0
aI0
aI0
aI0
aI0
aI0
aI0
aI0
aI0
aI0
aI0
aI0
aI0
aI0
aI0
aI0
aI0
aI0
aI0
aI0
aI0
aI0
aI0
aI0
aI0
aI0
aI0
aI0
aI0
aI0
aI0
aI0
aI0
aI0
aI0
aI0
aI0
aI0
aI0
aI0
aI0
aI0
aI0
aI0
aI0
aI0
aI0
aI0
aI0
aI0
aI0
aI0
aI0
aI0
aI0
aI0
aI0
aI0
aI0
aI0
aI0
aI0
aI0
aI0
aI0
aI0
aI0
aI0
aI0
aI0
aI0
aI0
aI0
aI0
aI0
aI0
aI0
aI0
aI0
aI0
aI0
aI0
aI0
aI0
aI0
aI0
aI0
aI0
aI0
aI0
aI0
aI0
aI0
aI0
aI0
aI0
aI0
aI0
aI0
aI0
aI0
aI0
aI0
aI0
aI0
aI0
aI0
aI0
aI0
aI0
aI0
aI0
aI0
aI0
aI0
aI0
aI0
aI0
aI0
aI0
aI0
aI0
aI0
aI0
aI0
aI0
aI0
aI0
aI0
aI0
aI0
aI0
aI0
aI0
aI0
aI0
aI0
aI0
aI0
aI0
aI0
aI0
aI0
aI0
aI0
aI0
aI0
aI0
aI0
aI0
aI0
aI0
aI0
aI0
aI0
aI0
aI0
aI0
aI0
aI0
aI0
aI0
aI0
aI0
aI0
aI0
aI0
aI0
asg20
F0
sg21
I01
sg22
Nsg23
g24
sg25
F100
sg26
S'EbSZ9DNdasw<x3QZ1uppLG#7v$SW9Bc5'
p642
sg28
S'Error at Chromosome_0|math range error'
p643
ssg30
Nsg31
I0
sg32
(lp644
g1
(g34
g3
NtRp645
(dp646
g37
F0.10000000000000001
sg38
(lp647
S'0'
aS'1'
asg40
(lp648
S'0'
aS'0'
aS'1'
aS'1'
aS'1'
aS'1'
aS'0'
aS'0'
aS'0'
aS'0'
aS'1'
aS'0'
aS'1'
aS'1'
aS'1'
aS'0'
aS'0'
aS'0'
aS'1'
aS'1'
aS'1'
aS'1'
aS'0'
aS'0'
aS'1'
aS'1'
aS'1'
aS'0'
aS'0'
aS'0'
asbasg42
g43
sbag1
(g9
g3
NtRp649
(dp650
g12
(dp651
g14
g15
sg16
F100
sg17
F100
sg18
(lp652
F-3.9950052293665159
aF-1.9426807890983486
aF1.3440585709080678e+43
aF6.1020164715892042e+38
aI20
aF9.9999997993073784
aF4.052356840206249e+72
aF242582597.70489514
aI0
aI0
aF4.052356840206249e+72
aI0
aI0
aI0
aI0
aF1.5430806348152437
aI0
aI0
aI0
aI0
aI0
aI0
aI0
aI0
aI0
aI0
aI0
aI0
aI0
aI0
aI0
aI0
aI0
aI0
aI0
aI0
aI0
aI0
aI0
aI0
aI0
aI0
aI0
aI0
aI0
aI0
aI0
aI0
aI0
aI0
aI0
aI0
aI0
aI0
aI0
aI0
aI0
aI0
aI0
aI0
aI0
aI0
aI0
aI0
aI0
aI0
aI0
aI0
aI0
aI0
aI0
aI0
aI0
aI0
aI0
aI0
aI0
aI0
aI0
aI0
aI0
aI0
aI0
aI0
aI0
aI0
aI0
aI0
aI0
aI0
aI0
aI0
aI0
aI0
aI0
aI0
aI0
aI0
aI0
aI0
aI0
aI0
aI0
aI0
aI0
aI0
aI0
aI0
aI0
aI0
aI0
aI0
aI0
aI0
aI0
aI0
aI0
aI0
aI0
aI0
aI0
aI0
aI0
aI0
aI0
aI0
aI0
aI0
aI0
aI0
aI0
aI0
aI0
aI0
aI0
aI0
aI0
aI0
aI0
aI0
aI0
aI0
aI0
aI0
aI0
aI0
aI0
aI0
aI0
aI0
aI0
aI0
aI0
aI0
aI0
aI0
aI0
aI0
aI0
aI0
aI0
aI0
aI0
aI0
aI0
aI0
aI0
aI0
aI0
aI0
aI0
aI0
aI0
aI0
aI0
aI0
aI0
aI0
aI0
aI0
aI0
aI0
aI0
aI0
aI0
aI0
aI0
aI0
aI0
aI0
aI0
aI0
aI0
aI0
aI0
aI0
aI0
aI0
aI0
aI0
asg20
F0
sg21
I01
sg22
Nsg23
g24
sg25
F100
sg26
S'A58?T>mWh?PE9rEH5Z#nrH1IWOqM1VlZ'
p653
sg28
S'Error at Chromosome_0|math range error'
p654
ssg30
Nsg31
I0
sg32
(lp655
g1
(g34
g3
NtRp656
(dp657
g37
F0.10000000000000001
sg38
(lp658
S'0'
aS'1'
asg40
(lp659
S'0'
aS'0'
aS'1'
aS'1'
aS'0'
aS'0'
aS'1'
aS'0'
aS'1'
aS'0'
aS'1'
aS'1'
aS'0'
aS'1'
aS'0'
aS'0'
aS'0'
aS'1'
aS'1'
aS'0'
aS'0'
aS'1'
aS'1'
aS'1'
aS'0'
aS'0'
aS'1'
aS'1'
aS'0'
aS'0'
asbasg42
g43
sbag1
(g9
g3
NtRp660
(dp661
g12
(dp662
g14
g15
sg16
F100
sg17
F100
sg18
(lp663
F3.7615941531668202
aF11055.232874703386
aF0.99999999944210638
aF21.978242348294266
aF11
aF10
aF29937.070429436495
aF107313.03666325904
aF1.1769263341851e+17
aI20
aF20.761594155721465
aF0
aF27.308232836016487
aI0
aI0
aI0
aI0
aI0
aI0
aI0
aI0
aI0
aI0
aI0
aI0
aI0
aI0
aI0
aI0
aI0
aI0
aI0
aI0
aI0
aI0
aI0
aI0
aI0
aI0
aI0
aI0
aI0
aI0
aI0
aI0
aI0
aI0
aI0
aI0
aI0
aI0
aI0
aI0
aI0
aI0
aI0
aI0
aI0
aI0
aI0
aI0
aI0
aI0
aI0
aI0
aI0
aI0
aI0
aI0
aI0
aI0
aI0
aI0
aI0
aI0
aI0
aI0
aI0
aI0
aI0
aI0
aI0
aI0
aI0
aI0
aI0
aI0
aI0
aI0
aI0
aI0
aI0
aI0
aI0
aI0
aI0
aI0
aI0
aI0
aI0
aI0
aI0
aI0
aI0
aI0
aI0
aI0
aI0
aI0
aI0
aI0
aI0
aI0
aI0
aI0
aI0
aI0
aI0
aI0
aI0
aI0
aI0
aI0
aI0
aI0
aI0
aI0
aI0
aI0
aI0
aI0
aI0
aI0
aI0
aI0
aI0
aI0
aI0
aI0
aI0
aI0
aI0
aI0
aI0
aI0
aI0
aI0
aI0
aI0
aI0
aI0
aI0
aI0
aI0
aI0
aI0
aI0
aI0
aI0
aI0
aI0
aI0
aI0
aI0
aI0
aI0
aI0
aI0
aI0
aI0
aI0
aI0
aI0
aI0
aI0
aI0
aI0
aI0
aI0
aI0
aI0
aI0
aI0
aI0
aI0
aI0
aI0
aI0
aI0
aI0
aI0
aI0
aI0
aI0
aI0
aI0
aI0
aI0
aI0
aI0
asg20
F0
sg21
I01
sg22
Nsg23
g24
sg25
F100
sg26
S'IBhL55YH9iS7B6>v3D8cJix3WCbpOwrp'
p664
sg28
S'Error at Chromosome_0|math range error'
p665
ssg30
Nsg31
I0
sg32
(lp666
g1
(g34
g3
NtRp667
(dp668
g37
F0.10000000000000001
sg38
(lp669
S'0'
aS'1'
asg40
(lp670
S'0'
aS'0'
aS'0'
aS'0'
aS'1'
aS'0'
aS'1'
aS'1'
aS'0'
aS'1'
aS'0'
aS'0'
aS'1'
aS'0'
aS'1'
aS'1'
aS'1'
aS'0'
aS'1'
aS'0'
aS'0'
aS'0'
aS'0'
aS'0'
aS'0'
aS'1'
aS'0'
aS'0'
aS'0'
aS'0'
asbasg42
g43
sbag1
(g9
g3
NtRp671
(dp672
g12
(dp673
g14
g15
sg16
F100
sg17
F100
sg18
(lp674
F85.238405843809943
aF-2.1798932719184618
aF0.73901942510575935
aI0
aI0
aF0.64201499187427369
aF0.14004591280187778
aF0.29634783068798187
aI0
aI30
aF1.0960972734938434
aF-0.64178870224420359
aF0.54308063481524371
aI20
aI0
aF11023.232920103323
aI0
aI0
aI0
aI0
aI0
aI0
aI0
aI0
aI0
aI0
aI0
aI0
aI0
aI0
aI0
aI0
aI0
aI0
aI0
aI0
aI0
aI0
aI0
aI0
aI0
aI0
aI0
aI0
aI0
aI0
aI0
aI0
aI0
aI0
aI0
aI0
aI0
aI0
aI0
aI0
aI0
aI0
aI0
aI0
aI0
aI0
aI0
aI0
aI0
aI0
aI0
aI0
aI0
aI0
aI0
aI0
aI0
aI0
aI0
aI0
aI0
aI0
aI0
aI0
aI0
aI0
aI0
aI0
aI0
aI0
aI0
aI0
aI0
aI0
aI0
aI0
aI0
aI0
aI0
aI0
aI0
aI0
aI0
aI0
aI0
aI0
aI0
aI0
aI0
aI0
aI0
aI0
aI0
aI0
aI0
aI0
aI0
aI0
aI0
aI0
aI0
aI0
aI0
aI0
aI0
aI0
aI0
aI0
aI0
aI0
aI0
aI0
aI0
aI0
aI0
aI0
aI0
aI0
aI0
aI0
aI0
aI0
aI0
aI0
aI0
aI0
aI0
aI0
aI0
aI0
aI0
aI0
aI0
aI0
aI0
aI0
aI0
aI0
aI0
aI0
aI0
aI0
aI0
aI0
aI0
aI0
aI0
aI0
aI0
aI0
aI0
aI0
aI0
aI0
aI0
aI0
aI0
aI0
aI0
aI0
aI0
aI0
aI0
aI0
aI0
aI0
aI0
aI0
aI0
aI0
aI0
aI0
aI0
aI0
aI0
aI0
aI0
aI0
aI0
aI0
aI0
aI0
aI0
aI0
asg20
F0
sg21
I01
sg22
Nsg23
g24
sg25
F100
sg26
S'&u5Lhw1>VB@GYtn$z5A>%8SFUY57iexN'
p675
sg28
S'Error at Chromosome_0|math range error'
p676
ssg30
Nsg31
I0
sg32
(lp677
g1
(g34
g3
NtRp678
(dp679
g37
F0.10000000000000001
sg38
(lp680
S'0'
aS'1'
asg40
(lp681
S'0'
aS'1'
aS'0'
aS'1'
aS'1'
aS'1'
aS'0'
aS'0'
aS'1'
aS'1'
aS'1'
aS'0'
aS'1'
aS'1'
aS'0'
aS'1'
aS'0'
aS'1'
aS'0'
aS'0'
aS'1'
aS'1'
aS'1'
aS'1'
aS'1'
aS'1'
aS'1'
aS'1'
aS'0'
aS'0'
asbasg42
g43
sbag1
(g9
g3
NtRp682
(dp683
g12
(dp684
g14
g15
sg16
F100
sg17
F100
sg18
(lp685
F6.7640398167739876e+26
aF4.052356840206249e+72
aF1.3991219127185399e+70
aF0.99999999999999956
aI49
aF127260.43385539316
aF-1.9426658870110673
aI15
aI70
aI0
aF-1.3434379411684754
aF0
aI77
aI0
aI0
aI-1
aI-2
aI-1
aI0
aI0
aI0
aI0
aI0
aI0
aI0
aI0
aI0
aI0
aI0
aI0
aI0
aI0
aI0
aI0
aI0
aI0
aI0
aI0
aI0
aI0
aI0
aI0
aI0
aI0
aI0
aI0
aI0
aI0
aI0
aI0
aI0
aI0
aI0
aI0
aI0
aI0
aI0
aI0
aI0
aI0
aI0
aI0
aI0
aI0
aI0
aI0
aI0
aI0
aI0
aI0
aI0
aI0
aI0
aI0
aI0
aI0
aI0
aI0
aI0
aI0
aI0
aI0
aI0
aI0
aI0
aI0
aI0
aI0
aI0
aI0
aI0
aI0
aI0
aI0
aI0
aI0
aI0
aI0
aI0
aI0
aI0
aI0
aI0
aI0
aI0
aI0
aI0
aI0
aI0
aI0
aI0
aI0
aI0
aI0
aI0
aI0
aI0
aI0
aI0
aI0
aI0
aI0
aI0
aI0
aI0
aI0
aI0
aI0
aI0
aI0
aI0
aI0
aI0
aI0
aI0
aI0
aI0
aI0
aI0
aI0
aI0
aI0
aI0
aI0
aI0
aI0
aI0
aI0
aI0
aI0
aI0
aI0
aI0
aI0
aI0
aI0
aI0
aI0
aI0
aI0
aI0
aI0
aI0
aI0
aI0
aI0
aI0
aI0
aI0
aI0
aI0
aI0
aI0
aI0
aI0
aI0
aI0
aI0
aI0
aI0
aI0
aI0
aI0
aI0
aI0
aI0
aI0
aI0
aI0
aI0
aI0
aI0
aI0
aI0
aI0
aI0
aI0
aI0
aI0
aI0
asg20
F0
sg21
I01
sg22
Nsg23
g24
sg25
F100
sg26
S'l8hTrQbmF&o>o4abaR2xTCjBk67udmpv'
p686
sg28
S'Error at Chromosome_0|math range error'
p687
ssg30
Nsg31
I0
sg32
(lp688
g1
(g34
g3
NtRp689
(dp690
g37
F0.10000000000000001
sg38
(lp691
S'0'
aS'1'
asg40
(lp692
S'0'
aS'1'
aS'1'
aS'1'
aS'0'
aS'0'
aS'0'
aS'0'
aS'1'
aS'0'
aS'0'
aS'0'
aS'0'
aS'0'
aS'1'
aS'0'
aS'1'
aS'1'
aS'0'
aS'0'
aS'0'
aS'0'
aS'1'
aS'1'
aS'1'
aS'1'
aS'1'
aS'0'
aS'0'
aS'0'
asbasg42
g43
sbag1
(g9
g3
NtRp693
(dp694
g12
(dp695
g14
g15
sg16
F100
sg17
F100
sg18
(lp696
F43.061699409297695
aF14524424832678.713
aF1332.206128387744
aF11023.232920103323
aF11
aF242582840.70489514
aF11103.232920103323
aF21.54308063454673
aI0
aI0
aF4.052356840206249e+72
aF2.4463520068496694
aI0
aI0
aI0
aF0.56626997586791705
aF0.99999999587769273
aI0
aI0
aI0
aI0
aI0
aI0
aI0
aI0
aI0
aI0
aI0
aI0
aI0
aI0
aI0
aI0
aI0
aI0
aI0
aI0
aI0
aI0
aI0
aI0
aI0
aI0
aI0
aI0
aI0
aI0
aI0
aI0
aI0
aI0
aI0
aI0
aI0
aI0
aI0
aI0
aI0
aI0
aI0
aI0
aI0
aI0
aI0
aI0
aI0
aI0
aI0
aI0
aI0
aI0
aI0
aI0
aI0
aI0
aI0
aI0
aI0
aI0
aI0
aI0
aI0
aI0
aI0
aI0
aI0
aI0
aI0
aI0
aI0
aI0
aI0
aI0
aI0
aI0
aI0
aI0
aI0
aI0
aI0
aI0
aI0
aI0
aI0
aI0
aI0
aI0
aI0
aI0
aI0
aI0
aI0
aI0
aI0
aI0
aI0
aI0
aI0
aI0
aI0
aI0
aI0
aI0
aI0
aI0
aI0
aI0
aI0
aI0
aI0
aI0
aI0
aI0
aI0
aI0
aI0
aI0
aI0
aI0
aI0
aI0
aI0
aI0
aI0
aI0
aI0
aI0
aI0
aI0
aI0
aI0
aI0
aI0
aI0
aI0
aI0
aI0
aI0
aI0
aI0
aI0
aI0
aI0
aI0
aI0
aI0
aI0
aI0
aI0
aI0
aI0
aI0
aI0
aI0
aI0
aI0
aI0
aI0
aI0
aI0
aI0
aI0
aI0
aI0
aI0
aI0
aI0
aI0
aI0
aI0
aI0
aI0
aI0
aI0
aI0
aI0
aI0
aI0
aI0
aI0
asg20
F0
sg21
I01
sg22
Nsg23
g24
sg25
F100
sg26
S'CyAQdVq5MUY3f2b8>mfA%S%w%NZupvGu'
p697
sg28
S'Error at Chromosome_0|math range error'
p698
ssg30
Nsg31
I0
sg32
(lp699
g1
(g34
g3
NtRp700
(dp701
g37
F0.10000000000000001
sg38
(lp702
S'0'
aS'1'
asg40
(lp703
S'1'
aS'1'
aS'0'
aS'0'
aS'0'
aS'0'
aS'0'
aS'0'
aS'0'
aS'1'
aS'1'
aS'1'
aS'0'
aS'1'
aS'1'
aS'0'
aS'0'
aS'1'
aS'1'
aS'1'
aS'1'
aS'1'
aS'1'
aS'0'
aS'0'
aS'0'
aS'1'
aS'0'
aS'0'
aS'0'
asbasg42
g43
sbag1
(g9
g3
NtRp704
(dp705
g12
(dp706
g14
g15
sg16
F100
sg17
F100
sg18
(lp707
F9.5318178422793314e+80
aF89241171.481593639
aF1.1251976960508518
aF18955.09325936895
aI0
aF1.5521489678509599e+26
aF1.5430806348152397
aF1
aI0
aI0
aI10
aF10
aF30.999999999442107
aI10
aI0
aI0
aF10.999999999442107
aF10.999999995877692
aI0
aI0
aI0
aF10
aI0
aI0
aI0
aI0
aI0
aI0
aI0
aI0
aI0
aI0
aI0
aI0
aI0
aI0
aI0
aI0
aI0
aI0
aI0
aI0
aI0
aI0
aI0
aI0
aI0
aI0
aI0
aI0
aI0
aI0
aI0
aI0
aI0
aI0
aI0
aI0
aI0
aI0
aI0
aI0
aI0
aI0
aI0
aI0
aI0
aI0
aI0
aI0
aI0
aI0
aI0
aI0
aI0
aI0
aI0
aI0
aI0
aI0
aI0
aI0
aI0
aI0
aI0
aI0
aI0
aI0
aI0
aI0
aI0
aI0
aI0
aI0
aI0
aI0
aI0
aI0
aI0
aI0
aI0
aI0
aI0
aI0
aI0
aI0
aI0
aI0
aI0
aI0
aI0
aI0
aI0
aI0
aI0
aI0
aI0
aI0
aI0
aI0
aI0
aI0
aI0
aI0
aI0
aI0
aI0
aI0
aI0
aI0
aI0
aI0
aI0
aI0
aI0
aI0
aI0
aI0
aI0
aI0
aI0
aI0
aI0
aI0
aI0
aI0
aI0
aI0
aI0
aI0
aI0
aI0
aI0
aI0
aI0
aI0
aI0
aI0
aI0
aI0
aI0
aI0
aI0
aI0
aI0
aI0
aI0
aI0
aI0
aI0
aI0
aI0
aI0
aI0
aI0
aI0
aI0
aI0
aI0
aI0
aI0
aI0
aI0
aI0
aI0
aI0
aI0
aI0
aI0
aI0
aI0
aI0
aI0
aI0
aI0
aI0
aI0
aI0
aI0
aI0
asg20
F0
sg21
I01
sg22
Nsg23
g24
sg25
F100
sg26
S'%puXVpAMSG@ulK>UopvV?Q1?4ow4%TUj'
p708
sg28
S'Error at Chromosome_0|math range error'
p709
ssg30
Nsg31
I0
sg32
(lp710
g1
(g34
g3
NtRp711
(dp712
g37
F0.10000000000000001
sg38
(lp713
S'0'
aS'1'
asg40
(lp714
S'1'
aS'0'
aS'0'
aS'0'
aS'0'
aS'0'
aS'0'
aS'0'
aS'0'
aS'0'
aS'1'
aS'1'
aS'1'
aS'0'
aS'1'
aS'1'
aS'1'
aS'0'
aS'1'
aS'1'
aS'1'
aS'0'
aS'0'
aS'0'
aS'0'
aS'0'
aS'0'
aS'0'
aS'0'
aS'0'
asbasg42
g43
sbag1
(g9
g3
NtRp715
(dp716
g12
(dp717
g14
g15
sg16
F100
sg17
F100
sg18
(lp718
F52.999999995877694
aF30.642014992012001
aF316014072401.17596
aF1.5430806348152437
aF-2
aF1
aF1
aF1.0445471051645256
aF10.033989205032134
aF1.415376651637347e+23
aF29957.070865949761
aF11022.232920103323
aF11784.198666665105
aF89241150.481593639
aI-1
aF1.5430806345939598
aI0
aI10
aF1
aF1.5430806348152437
aI0
aI0
aI10
aI0
aI0
aI0
aI0
aI0
aI0
aI0
aI0
aI0
aI0
aI0
aI0
aI0
aI0
aI0
aI0
aI0
aI0
aI0
aI0
aI0
aI0
aI0
aI0
aI0
aI0
aI0
aI0
aI0
aI0
aI0
aI0
aI0
aI0
aI0
aI0
aI0
aI0
aI0
aI0
aI0
aI0
aI0
aI0
aI0
aI0
aI0
aI0
aI0
aI0
aI0
aI0
aI0
aI0
aI0
aI0
aI0
aI0
aI0
aI0
aI0
aI0
aI0
aI0
aI0
aI0
aI0
aI0
aI0
aI0
aI0
aI0
aI0
aI0
aI0
aI0
aI0
aI0
aI0
aI0
aI0
aI0
aI0
aI0
aI0
aI0
aI0
aI0
aI0
aI0
aI0
aI0
aI0
aI0
aI0
aI0
aI0
aI0
aI0
aI0
aI0
aI0
aI0
aI0
aI0
aI0
aI0
aI0
aI0
aI0
aI0
aI0
aI0
aI0
aI0
aI0
aI0
aI0
aI0
aI0
aI0
aI0
aI0
aI0
aI0
aI0
aI0
aI0
aI0
aI0
aI0
aI0
aI0
aI0
aI0
aI0
aI0
aI0
aI0
aI0
aI0
aI0
aI0
aI0
aI0
aI0
aI0
aI0
aI0
aI0
aI0
aI0
aI0
aI0
aI0
aI0
aI0
aI0
aI0
aI0
aI0
aI0
aI0
aI0
aI0
aI0
aI0
aI0
aI0
aI0
aI0
aI0
aI0
aI0
aI0
aI0
aI0
asg20
F0
sg21
I01
sg22
Nsg23
g24
sg25
F100
sg26
S'?GW=SdaUUGUkn2x@KDXJUWSYnHvn<gbW'
p719
sg28
S'Error at Chromosome_0|math range error'
p720
ssg30
Nsg31
I0
sg32
(lp721
g1
(g34
g3
NtRp722
(dp723
g37
F0.10000000000000001
sg38
(lp724
S'0'
aS'1'
asg40
(lp725
S'0'
aS'1'
aS'1'
aS'0'
aS'0'
aS'0'
aS'1'
aS'0'
aS'1'
aS'1'
aS'0'
aS'1'
aS'0'
aS'1'
aS'0'
aS'0'
aS'1'
aS'0'
aS'0'
aS'1'
aS'0'
aS'0'
aS'0'
aS'1'
aS'1'
aS'1'
aS'1'
aS'1'
aS'0'
aS'0'
asbasg42
g43
sbag1
(g9
g3
NtRp726
(dp727
g12
(dp728
g14
g15
sg16
F100
sg17
F100
sg18
(lp729
F49.54308063481524
aF9.0338529385784922e+38
aF11023.232920103323
aF1.5430806348152437
aI0
aF1.2474788458781454
aF3.1992174676502746e+17
aF11033.232920103323
aF1.5430806348152437
aI0
aF0
aF31
aI0
aI0
aI0
aF1
aI0
aI0
aI0
aI0
aI0
aI0
aI0
aI0
aI0
aI0
aI0
aI0
aI0
aI0
aI0
aI0
aI0
aI0
aI0
aI0
aI0
aI0
aI0
aI0
aI0
aI0
aI0
aI0
aI0
aI0
aI0
aI0
aI0
aI0
aI0
aI0
aI0
aI0
aI0
aI0
aI0
aI0
aI0
aI0
aI0
aI0
aI0
aI0
aI0
aI0
aI0
aI0
aI0
aI0
aI0
aI0
aI0
aI0
aI0
aI0
aI0
aI0
aI0
aI0
aI0
aI0
aI0
aI0
aI0
aI0
aI0
aI0
aI0
aI0
aI0
aI0
aI0
aI0
aI0
aI0
aI0
aI0
aI0
aI0
aI0
aI0
aI0
aI0
aI0
aI0
aI0
aI0
aI0
aI0
aI0
aI0
aI0
aI0
aI0
aI0
aI0
aI0
aI0
aI0
aI0
aI0
aI0
aI0
aI0
aI0
aI0
aI0
aI0
aI0
aI0
aI0
aI0
aI0
aI0
aI0
aI0
aI0
aI0
aI0
aI0
aI0
aI0
aI0
aI0
aI0
aI0
aI0
aI0
aI0
aI0
aI0
aI0
aI0
aI0
aI0
aI0
aI0
aI0
aI0
aI0
aI0
aI0
aI0
aI0
aI0
aI0
aI0
aI0
aI0
aI0
aI0
aI0
aI0
aI0
aI0
aI0
aI0
aI0
aI0
aI0
aI0
aI0
aI0
aI0
aI0
aI0
aI0
aI0
aI0
aI0
aI0
aI0
aI0
aI0
aI0
aI0
aI0
aI0
aI0
asg20
F0
sg21
I01
sg22
Nsg23
g24
sg25
F100
sg26
S'vGfPxQZD7iz4xnXpVrfcYF4N36ol>9hu'
p730
sg28
S'Error at Chromosome_0|math range error'
p731
ssg30
Nsg31
I0
sg32
(lp732
g1
(g34
g3
NtRp733
(dp734
g37
F0.10000000000000001
sg38
(lp735
S'0'
aS'1'
asg40
(lp736
S'0'
aS'1'
aS'1'
aS'0'
aS'0'
aS'0'
aS'0'
aS'1'
aS'0'
aS'1'
aS'1'
aS'0'
aS'0'
aS'0'
aS'0'
aS'0'
aS'0'
aS'1'
aS'1'
aS'1'
aS'0'
aS'0'
aS'0'
aS'0'
aS'1'
aS'1'
aS'1'
aS'1'
aS'0'
aS'0'
asbasg42
g43
sbag1
(g9
g3
NtRp737
(dp738
g12
(dp739
g14
g15
sg16
F100
sg17
F100
sg18
(lp740
F1.5597008734938653
aF0.39142072274619327
aF3697758.8338975105
aF1.5430861660415676
aF5.8163792453876901
aF-0.44774602410499242
aF4.052342610784634e+72
aF1.5430806348152437
aF-1.9600362505866817
aI0
aF5.8163792453876901
aI0
aI0
aI0
aI0
aI0
aI0
aI0
aI0
aI0
aI0
aI0
aI0
aI0
aI0
aI0
aI0
aI0
aI0
aI0
aI0
aI0
aI0
aI0
aI0
aI0
aI0
aI0
aI0
aI0
aI0
aI0
aI0
aI0
aI0
aI0
aI0
aI0
aI0
aI0
aI0
aI0
aI0
aI0
aI0
aI0
aI0
aI0
aI0
aI0
aI0
aI0
aI0
aI0
aI0
aI0
aI0
aI0
aI0
aI0
aI0
aI0
aI0
aI0
aI0
aI0
aI0
aI0
aI0
aI0
aI0
aI0
aI0
aI0
aI0
aI0
aI0
aI0
aI0
aI0
aI0
aI0
aI0
aI0
aI0
aI0
aI0
aI0
aI0
aI0
aI0
aI0
aI0
aI0
aI0
aI0
aI0
aI0
aI0
aI0
aI0
aI0
aI0
aI0
aI0
aI0
aI0
aI0
aI0
aI0
aI0
aI0
aI0
aI0
aI0
aI0
aI0
aI0
aI0
aI0
aI0
aI0
aI0
aI0
aI0
aI0
aI0
aI0
aI0
aI0
aI0
aI0
aI0
aI0
aI0
aI0
aI0
aI0
aI0
aI0
aI0
aI0
aI0
aI0
aI0
aI0
aI0
aI0
aI0
aI0
aI0
aI0
aI0
aI0
aI0
aI0
aI0
aI0
aI0
aI0
aI0
aI0
aI0
aI0
aI0
aI0
aI0
aI0
aI0
aI0
aI0
aI0
aI0
aI0
aI0
aI0
aI0
aI0
aI0
aI0
aI0
aI0
aI0
aI0
aI0
aI0
aI0
aI0
aI0
aI0
asg20
F0
sg21
I01
sg22
Nsg23
g24
sg25
F100
sg26
S'n%sW&>b@Iz451HjG8FcXS8iWlathgGXc'
p741
sg28
S'Error at Chromosome_0|math range error'
p742
ssg30
Nsg31
I0
sg32
(lp743
g1
(g34
g3
NtRp744
(dp745
g37
F0.10000000000000001
sg38
(lp746
S'0'
aS'1'
asg40
(lp747
S'1'
aS'1'
aS'0'
aS'1'
aS'0'
aS'1'
aS'0'
aS'1'
aS'1'
aS'1'
aS'0'
aS'1'
aS'0'
aS'1'
aS'1'
aS'1'
aS'1'
aS'1'
aS'1'
aS'0'
aS'0'
aS'0'
aS'0'
aS'0'
aS'0'
aS'0'
aS'0'
aS'1'
aS'0'
aS'0'
asbasg42
g43
sbag1
(g9
g3
NtRp748
(dp749
g12
(dp750
g14
g15
sg16
F100
sg17
F100
sg18
(lp751
F30062.07084924807
aF11380306530375832
aF0.76159415595576485
aF51530.722096349724
aI50
aF6.2672577782146479e+34
aF659407907.24160731
aF11013.232920103323
aI10
aI20
aI0
aF1
aF11033.232920103323
aF1.4461728085856087
aI0
aI0
aF11013.232920103323
aF1.4461728085856087
aF11033.232920103323
aI0
aI0
aF1.5257516966182036
aF167.87857252384407
aI0
aI0
aI0
aI0
aI0
aI0
aI0
aI0
aI0
aI0
aI0
aI0
aI0
aI0
aI0
aI0
aI0
aI0
aI0
aI0
aI0
aI0
aI0
aI0
aI0
aI0
aI0
aI0
aI0
aI0
aI0
aI0
aI0
aI0
aI0
aI0
aI0
aI0
aI0
aI0
aI0
aI0
aI0
aI0
aI0
aI0
aI0
aI0
aI0
aI0
aI0
aI0
aI0
aI0
aI0
aI0
aI0
aI0
aI0
aI0
aI0
aI0
aI0
aI0
aI0
aI0
aI0
aI0
aI0
aI0
aI0
aI0
aI0
aI0
aI0
aI0
aI0
aI0
aI0
aI0
aI0
aI0
aI0
aI0
aI0
aI0
aI0
aI0
aI0
aI0
aI0
aI0
aI0
aI0
aI0
aI0
aI0
aI0
aI0
aI0
aI0
aI0
aI0
aI0
aI0
aI0
aI0
aI0
aI0
aI0
aI0
aI0
aI0
aI0
aI0
aI0
aI0
aI0
aI0
aI0
aI0
aI0
aI0
aI0
aI0
aI0
aI0
aI0
aI0
aI0
aI0
aI0
aI0
aI0
aI0
aI0
aI0
aI0
aI0
aI0
aI0
aI0
aI0
aI0
aI0
aI0
aI0
aI0
aI0
aI0
aI0
aI0
aI0
aI0
aI0
aI0
aI0
aI0
aI0
aI0
aI0
aI0
aI0
aI0
aI0
aI0
aI0
aI0
aI0
aI0
aI0
aI0
aI0
aI0
aI0
aI0
aI0
asg20
F0
sg21
I01
sg22
Nsg23
g24
sg25
F100
sg26
S'idR@FouvstLYaz8K9Ucoas1J8IdQGtmU'
p752
sg28
S'Error at Chromosome_0|math range error'
p753
ssg30
Nsg31
I0
sg32
(lp754
g1
(g34
g3
NtRp755
(dp756
g37
F0.10000000000000001
sg38
(lp757
S'0'
aS'1'
asg40
(lp758
S'0'
aS'1'
aS'1'
aS'1'
aS'0'
aS'0'
aS'1'
aS'1'
aS'0'
aS'1'
aS'0'
aS'0'
aS'0'
aS'0'
aS'0'
aS'0'
aS'1'
aS'1'
aS'1'
aS'0'
aS'0'
aS'1'
aS'1'
aS'1'
aS'0'
aS'0'
aS'1'
aS'1'
aS'0'
aS'0'
asbasg42
g43
sbag1
(g9
g3
NtRp759
(dp760
g12
(dp761
g14
g15
sg16
F100
sg17
F100
sg18
(lp762
F36479005.90545316
aF1.4461728085856087
aF11013.232920103323
aI0
aF27352.072874645899
aF0.71382194280808864
aF4.052356840206249e+72
aF1.0910900815882014
aF1.028553532011165
aI0
aF29939.070865949761
aF23620.905276244262
aI0
aI0
aI0
aF11049.232920103323
aI0
aI0
aI0
aI0
aI0
aI0
aI0
aI0
aI0
aI0
aI0
aI0
aI0
aI0
aI0
aI0
aI0
aI0
aI0
aI0
aI0
aI0
aI0
aI0
aI0
aI0
aI0
aI0
aI0
aI0
aI0
aI0
aI0
aI0
aI0
aI0
aI0
aI0
aI0
aI0
aI0
aI0
aI0
aI0
aI0
aI0
aI0
aI0
aI0
aI0
aI0
aI0
aI0
aI0
aI0
aI0
aI0
aI0
aI0
aI0
aI0
aI0
aI0
aI0
aI0
aI0
aI0
aI0
aI0
aI0
aI0
aI0
aI0
aI0
aI0
aI0
aI0
aI0
aI0
aI0
aI0
aI0
aI0
aI0
aI0
aI0
aI0
aI0
aI0
aI0
aI0
aI0
aI0
aI0
aI0
aI0
aI0
aI0
aI0
aI0
aI0
aI0
aI0
aI0
aI0
aI0
aI0
aI0
aI0
aI0
aI0
aI0
aI0
aI0
aI0
aI0
aI0
aI0
aI0
aI0
aI0
aI0
aI0
aI0
aI0
aI0
aI0
aI0
aI0
aI0
aI0
aI0
aI0
aI0
aI0
aI0
aI0
aI0
aI0
aI0
aI0
aI0
aI0
aI0
aI0
aI0
aI0
aI0
aI0
aI0
aI0
aI0
aI0
aI0
aI0
aI0
aI0
aI0
aI0
aI0
aI0
aI0
aI0
aI0
aI0
aI0
aI0
aI0
aI0
aI0
aI0
aI0
aI0
aI0
aI0
aI0
aI0
aI0
aI0
aI0
aI0
aI0
aI0
aI0
asg20
F0
sg21
I01
sg22
Nsg23
g24
sg25
F100
sg26
S'zvWBPe3o&qHR8&Ah>c7lvOfoew45lOzz'
p763
sg28
S'Error at Chromosome_0|math range error'
p764
ssg30
Nsg31
I0
sg32
(lp765
g1
(g34
g3
NtRp766
(dp767
g37
F0.10000000000000001
sg38
(lp768
S'0'
aS'1'
asg40
(lp769
S'1'
aS'0'
aS'0'
aS'1'
aS'0'
aS'1'
aS'1'
aS'0'
aS'1'
aS'1'
aS'0'
aS'0'
aS'0'
aS'0'
aS'0'
aS'1'
aS'1'
aS'0'
aS'0'
aS'0'
aS'0'
aS'0'
aS'1'
aS'0'
aS'0'
aS'1'
aS'0'
aS'0'
aS'0'
aS'0'
asbasg42
g43
sbag1
(g9
g3
NtRp770
(dp771
g12
(dp772
g14
g15
sg16
F100
sg17
F100
sg18
(lp773
F-0.48738533293934483
aF29937.070865949761
aF242582717.70489514
aF242582617.70489514
aF11
aF0.99999999917986726
aF29937.070865949761
aF1
aI0
aI0
aF1.4133753888755762
aF1
aI0
aI0
aI0
aF2.4080282775358159
aI0
aI0
aI0
aI0
aI0
aI0
aI0
aI0
aI0
aI0
aI0
aI0
aI0
aI0
aI0
aI0
aI0
aI0
aI0
aI0
aI0
aI0
aI0
aI0
aI0
aI0
aI0
aI0
aI0
aI0
aI0
aI0
aI0
aI0
aI0
aI0
aI0
aI0
aI0
aI0
aI0
aI0
aI0
aI0
aI0
aI0
aI0
aI0
aI0
aI0
aI0
aI0
aI0
aI0
aI0
aI0
aI0
aI0
aI0
aI0
aI0
aI0
aI0
aI0
aI0
aI0
aI0
aI0
aI0
aI0
aI0
aI0
aI0
aI0
aI0
aI0
aI0
aI0
aI0
aI0
aI0
aI0
aI0
aI0
aI0
aI0
aI0
aI0
aI0
aI0
aI0
aI0
aI0
aI0
aI0
aI0
aI0
aI0
aI0
aI0
aI0
aI0
aI0
aI0
aI0
aI0
aI0
aI0
aI0
aI0
aI0
aI0
aI0
aI0
aI0
aI0
aI0
aI0
aI0
aI0
aI0
aI0
aI0
aI0
aI0
aI0
aI0
aI0
aI0
aI0
aI0
aI0
aI0
aI0
aI0
aI0
aI0
aI0
aI0
aI0
aI0
aI0
aI0
aI0
aI0
aI0
aI0
aI0
aI0
aI0
aI0
aI0
aI0
aI0
aI0
aI0
aI0
aI0
aI0
aI0
aI0
aI0
aI0
aI0
aI0
aI0
aI0
aI0
aI0
aI0
aI0
aI0
aI0
aI0
aI0
aI0
aI0
aI0
aI0
aI0
aI0
aI0
aI0
aI0
asg20
F0
sg21
I01
sg22
Nsg23
g24
sg25
F100
sg26
S'ihzoe371PsS$RTzC92AXZretR<Yn=ab5'
p774
sg28
S'Error at Chromosome_0|math range error'
p775
ssg30
Nsg31
I0
sg32
(lp776
g1
(g34
g3
NtRp777
(dp778
g37
F0.10000000000000001
sg38
(lp779
S'0'
aS'1'
asg40
(lp780
S'0'
aS'0'
aS'1'
aS'0'
aS'0'
aS'0'
aS'1'
aS'0'
aS'1'
aS'0'
aS'1'
aS'0'
aS'1'
aS'1'
aS'0'
aS'1'
aS'1'
aS'1'
aS'1'
aS'0'
aS'0'
aS'1'
aS'0'
aS'0'
aS'0'
aS'1'
aS'0'
aS'0'
aS'0'
aS'0'
asbasg42
g43
sbag1
(g9
g3
NtRp781
(dp782
g12
(dp783
g14
g15
sg16
F100
sg17
F100
sg18
(lp784
F0.9999999958776925
aF0
aF4.052356840206249e+72
aF1
aI20
aF-0.34343794116847548
aF1
aF1.0281699992170403
aF1.0215126719934102
aI30
aF0.999999969540041
aF1.0000000000000038
aF1.0258025308852581
aI0
aI0
aI0
aF1.5430806348152437
aI0
aI0
aI0
aI0
aI0
aI0
aI0
aI0
aI0
aI0
aI0
aI0
aI0
aI0
aI0
aI0
aI0
aI0
aI0
aI0
aI0
aI0
aI0
aI0
aI0
aI0
aI0
aI0
aI0
aI0
aI0
aI0
aI0
aI0
aI0
aI0
aI0
aI0
aI0
aI0
aI0
aI0
aI0
aI0
aI0
aI0
aI0
aI0
aI0
aI0
aI0
aI0
aI0
aI0
aI0
aI0
aI0
aI0
aI0
aI0
aI0
aI0
aI0
aI0
aI0
aI0
aI0
aI0
aI0
aI0
aI0
aI0
aI0
aI0
aI0
aI0
aI0
aI0
aI0
aI0
aI0
aI0
aI0
aI0
aI0
aI0
aI0
aI0
aI0
aI0
aI0
aI0
aI0
aI0
aI0
aI0
aI0
aI0
aI0
aI0
aI0
aI0
aI0
aI0
aI0
aI0
aI0
aI0
aI0
aI0
aI0
aI0
aI0
aI0
aI0
aI0
aI0
aI0
aI0
aI0
aI0
aI0
aI0
aI0
aI0
aI0
aI0
aI0
aI0
aI0
aI0
aI0
aI0
aI0
aI0
aI0
aI0
aI0
aI0
aI0
aI0
aI0
aI0
aI0
aI0
aI0
aI0
aI0
aI0
aI0
aI0
aI0
aI0
aI0
aI0
aI0
aI0
aI0
aI0
aI0
aI0
aI0
aI0
aI0
aI0
aI0
aI0
aI0
aI0
aI0
aI0
aI0
aI0
aI0
aI0
aI0
aI0
aI0
aI0
aI0
aI0
aI0
aI0
asg20
F0
sg21
I01
sg22
Nsg23
g24
sg25
F100
sg26
S'GSfIMYu>s#@qL4gE&V9rDTSbdK?P4awc'
p785
sg28
S'Error at Chromosome_0|math range error'
p786
ssg30
Nsg31
I0
sg32
(lp787
g1
(g34
g3
NtRp788
(dp789
g37
F0.10000000000000001
sg38
(lp790
S'0'
aS'1'
asg40
(lp791
S'0'
aS'1'
aS'0'
aS'1'
aS'1'
aS'0'
aS'0'
aS'1'
aS'1'
aS'1'
aS'0'
aS'0'
aS'0'
aS'0'
aS'1'
aS'0'
aS'0'
aS'0'
aS'0'
aS'1'
aS'1'
aS'1'
aS'0'
aS'1'
aS'0'
aS'0'
aS'0'
aS'0'
aS'0'
aS'0'
asbasg42
g43
sbag1
(g9
g3
NtRp792
(dp793
g12
(dp794
g14
g15
sg16
F100
sg17
F100
sg18
(lp795
F1634508.6364491428
aF49.238242562413667
aF0.99999999867173572
aF0
aF58.099913236662402
aF71.543080634593963
aF4.052356840206249e+72
aF1.1769263341851e+17
aF4.052356840206249e+72
aI0
aF2.3639197243698729e+18
aF194498.93535842779
aF4.052356840206249e+72
aI0
aI0
aF1.4461728085856087
aF1
aI0
aI0
aI0
aI0
aI0
aI0
aI0
aI0
aI0
aI0
aI0
aI0
aI0
aI0
aI0
aI0
aI0
aI0
aI0
aI0
aI0
aI0
aI0
aI0
aI0
aI0
aI0
aI0
aI0
aI0
aI0
aI0
aI0
aI0
aI0
aI0
aI0
aI0
aI0
aI0
aI0
aI0
aI0
aI0
aI0
aI0
aI0
aI0
aI0
aI0
aI0
aI0
aI0
aI0
aI0
aI0
aI0
aI0
aI0
aI0
aI0
aI0
aI0
aI0
aI0
aI0
aI0
aI0
aI0
aI0
aI0
aI0
aI0
aI0
aI0
aI0
aI0
aI0
aI0
aI0
aI0
aI0
aI0
aI0
aI0
aI0
aI0
aI0
aI0
aI0
aI0
aI0
aI0
aI0
aI0
aI0
aI0
aI0
aI0
aI0
aI0
aI0
aI0
aI0
aI0
aI0
aI0
aI0
aI0
aI0
aI0
aI0
aI0
aI0
aI0
aI0
aI0
aI0
aI0
aI0
aI0
aI0
aI0
aI0
aI0
aI0
aI0
aI0
aI0
aI0
aI0
aI0
aI0
aI0
aI0
aI0
aI0
aI0
aI0
aI0
aI0
aI0
aI0
aI0
aI0
aI0
aI0
aI0
aI0
aI0
aI0
aI0
aI0
aI0
aI0
aI0
aI0
aI0
aI0
aI0
aI0
aI0
aI0
aI0
aI0
aI0
aI0
aI0
aI0
aI0
aI0
aI0
aI0
aI0
aI0
aI0
aI0
aI0
aI0
aI0
aI0
aI0
aI0
asg20
F0
sg21
I01
sg22
Nsg23
g24
sg25
F100
sg26
S'blmp?e?UsRNo7qK29ctNDZfuayDVsnvc'
p796
sg28
S'Error at Chromosome_0|math range error'
p797
ssg30
Nsg31
I0
sg32
(lp798
g1
(g34
g3
NtRp799
(dp800
g37
F0.10000000000000001
sg38
(lp801
S'0'
aS'1'
asg40
(lp802
S'1'
aS'0'
aS'0'
aS'0'
aS'1'
aS'0'
aS'1'
aS'1'
aS'1'
aS'0'
aS'0'
aS'1'
aS'0'
aS'1'
aS'1'
aS'1'
aS'1'
aS'0'
aS'1'
aS'0'
aS'0'
aS'1'
aS'1'
aS'0'
aS'1'
aS'1'
aS'0'
aS'1'
aS'0'
aS'0'
asbasg42
g43
sbag1
(g9
g3
NtRp803
(dp804
g12
(dp805
g14
g15
sg16
F100
sg17
F100
sg18
(lp806
F3.666459666986039e+119
aF30005.070865949761
aF51530.722096349724
aF1
aI0
aF0
aF8.9259099329153967e+76
aF29967.070865949761
aF1.5430806348152437
aF1
aF1
aF0.56626997596147965
aI20
aI10
aI0
aF1561.1679218172997
aF29.818127611071677
aI40
aI0
aI0
aI0
aI0
aI0
aI0
aI0
aI0
aI0
aI0
aI0
aI0
aI0
aI0
aI0
aI0
aI0
aI0
aI0
aI0
aI0
aI0
aI0
aI0
aI0
aI0
aI0
aI0
aI0
aI0
aI0
aI0
aI0
aI0
aI0
aI0
aI0
aI0
aI0
aI0
aI0
aI0
aI0
aI0
aI0
aI0
aI0
aI0
aI0
aI0
aI0
aI0
aI0
aI0
aI0
aI0
aI0
aI0
aI0
aI0
aI0
aI0
aI0
aI0
aI0
aI0
aI0
aI0
aI0
aI0
aI0
aI0
aI0
aI0
aI0
aI0
aI0
aI0
aI0
aI0
aI0
aI0
aI0
aI0
aI0
aI0
aI0
aI0
aI0
aI0
aI0
aI0
aI0
aI0
aI0
aI0
aI0
aI0
aI0
aI0
aI0
aI0
aI0
aI0
aI0
aI0
aI0
aI0
aI0
aI0
aI0
aI0
aI0
aI0
aI0
aI0
aI0
aI0
aI0
aI0
aI0
aI0
aI0
aI0
aI0
aI0
aI0
aI0
aI0
aI0
aI0
aI0
aI0
aI0
aI0
aI0
aI0
aI0
aI0
aI0
aI0
aI0
aI0
aI0
aI0
aI0
aI0
aI0
aI0
aI0
aI0
aI0
aI0
aI0
aI0
aI0
aI0
aI0
aI0
aI0
aI0
aI0
aI0
aI0
aI0
aI0
aI0
aI0
aI0
aI0
aI0
aI0
aI0
aI0
aI0
aI0
aI0
aI0
aI0
aI0
aI0
aI0
asg20
F0
sg21
I01
sg22
Nsg23
g24
sg25
F100
sg26
S'6VQ#ecB9ue#ovbJqBS?odAvu9JdVvBl$'
p807
sg28
S'Error at Chromosome_0|math range error'
p808
ssg30
Nsg31
I0
sg32
(lp809
g1
(g34
g3
NtRp810
(dp811
g37
F0.10000000000000001
sg38
(lp812
S'0'
aS'1'
asg40
(lp813
S'0'
aS'0'
aS'1'
aS'0'
aS'1'
aS'0'
aS'0'
aS'1'
aS'0'
aS'0'
aS'1'
aS'1'
aS'1'
aS'0'
aS'1'
aS'0'
aS'1'
aS'1'
aS'1'
aS'1'
aS'0'
aS'1'
aS'1'
aS'1'
aS'1'
aS'0'
aS'1'
aS'0'
aS'0'
aS'0'
asbasg42
g43
sbag1
(g9
g3
NtRp814
(dp815
g12
(dp816
g14
g15
sg16
F100
sg17
F100
sg18
(lp817
F0.41347670990383567
aF32829977.568665262
aF29937.070865949761
aF11023.232920103323
aI0
aF2.4608892416173942e+20
aF29969.070865949761
aF51532.722096349724
aF29937.070742539938
aF12.775679038020975
aF2817.8272790617821
aF29944.070742539938
aF29944.07084924807
aF29937.07084924807
aF4.052356840206249e+72
aF0.30430458623589618
aF19.912636575963212
aF10
aF1
aI0
aI0
aF10
aF1
aI0
aI0
aI0
aI0
aI0
aI0
aI0
aI0
aI0
aI0
aI0
aI0
aI0
aI0
aI0
aI0
aI0
aI0
aI0
aI0
aI0
aI0
aI0
aI0
aI0
aI0
aI0
aI0
aI0
aI0
aI0
aI0
aI0
aI0
aI0
aI0
aI0
aI0
aI0
aI0
aI0
aI0
aI0
aI0
aI0
aI0
aI0
aI0
aI0
aI0
aI0
aI0
aI0
aI0
aI0
aI0
aI0
aI0
aI0
aI0
aI0
aI0
aI0
aI0
aI0
aI0
aI0
aI0
aI0
aI0
aI0
aI0
aI0
aI0
aI0
aI0
aI0
aI0
aI0
aI0
aI0
aI0
aI0
aI0
aI0
aI0
aI0
aI0
aI0
aI0
aI0
aI0
aI0
aI0
aI0
aI0
aI0
aI0
aI0
aI0
aI0
aI0
aI0
aI0
aI0
aI0
aI0
aI0
aI0
aI0
aI0
aI0
aI0
aI0
aI0
aI0
aI0
aI0
aI0
aI0
aI0
aI0
aI0
aI0
aI0
aI0
aI0
aI0
aI0
aI0
aI0
aI0
aI0
aI0
aI0
aI0
aI0
aI0
aI0
aI0
aI0
aI0
aI0
aI0
aI0
aI0
aI0
aI0
aI0
aI0
aI0
aI0
aI0
aI0
aI0
aI0
aI0
aI0
aI0
aI0
aI0
aI0
aI0
aI0
aI0
aI0
aI0
aI0
aI0
aI0
aI0
aI0
aI0
aI0
aI0
aI0
aI0
asg20
F0
sg21
I01
sg22
Nsg23
g24
sg25
F100
sg26
S'qyfCx@T1lmvP<E&A@q$mKM#?2mq6FI@w'
p818
sg28
S'Error at Chromosome_0|math range error'
p819
ssg30
Nsg31
I0
sg32
(lp820
g1
(g34
g3
NtRp821
(dp822
g37
F0.10000000000000001
sg38
(lp823
S'0'
aS'1'
asg40
(lp824
S'1'
aS'0'
aS'1'
aS'0'
aS'0'
aS'1'
aS'1'
aS'1'
aS'0'
aS'1'
aS'0'
aS'0'
aS'0'
aS'0'
aS'0'
aS'0'
aS'1'
aS'1'
aS'1'
aS'0'
aS'0'
aS'1'
aS'1'
aS'1'
aS'0'
aS'1'
aS'1'
aS'0'
aS'0'
aS'0'
asbasg42
g43
sbag1
(g9
g3
NtRp825
(dp826
g12
(dp827
g14
g15
sg16
F100
sg17
F100
sg18
(lp828
F66
aF0.86283598559342412
aI0
aF167.87857252384407
aI0
aF1.4140388384911422
aF1.2193675410948985
aF1.4219181848489955
aF0
aF0
aF1.3043045862358962
aF29937.070865949761
aI0
aF1
aF5.8163792453876901
aI0
aI0
aF1
aF1.5430806348152437
aI0
aI0
aI0
aI0
aI0
aI0
aI0
aI0
aI0
aI0
aI0
aI0
aI0
aI0
aI0
aI0
aI0
aI0
aI0
aI0
aI0
aI0
aI0
aI0
aI0
aI0
aI0
aI0
aI0
aI0
aI0
aI0
aI0
aI0
aI0
aI0
aI0
aI0
aI0
aI0
aI0
aI0
aI0
aI0
aI0
aI0
aI0
aI0
aI0
aI0
aI0
aI0
aI0
aI0
aI0
aI0
aI0
aI0
aI0
aI0
aI0
aI0
aI0
aI0
aI0
aI0
aI0
aI0
aI0
aI0
aI0
aI0
aI0
aI0
aI0
aI0
aI0
aI0
aI0
aI0
aI0
aI0
aI0
aI0
aI0
aI0
aI0
aI0
aI0
aI0
aI0
aI0
aI0
aI0
aI0
aI0
aI0
aI0
aI0
aI0
aI0
aI0
aI0
aI0
aI0
aI0
aI0
aI0
aI0
aI0
aI0
aI0
aI0
aI0
aI0
aI0
aI0
aI0
aI0
aI0
aI0
aI0
aI0
aI0
aI0
aI0
aI0
aI0
aI0
aI0
aI0
aI0
aI0
aI0
aI0
aI0
aI0
aI0
aI0
aI0
aI0
aI0
aI0
aI0
aI0
aI0
aI0
aI0
aI0
aI0
aI0
aI0
aI0
aI0
aI0
aI0
aI0
aI0
aI0
aI0
aI0
aI0
aI0
aI0
aI0
aI0
aI0
aI0
aI0
aI0
aI0
aI0
aI0
aI0
aI0
aI0
aI0
aI0
aI0
aI0
aI0
asg20
F0
sg21
I01
sg22
Nsg23
g24
sg25
F100
sg26
S'G1xa4a8SBQn3F=G$uUVT$s>eCe8LOpCT'
p829
sg28
S'Error at Chromosome_0|math range error'
p830
ssg30
Nsg31
I0
sg32
(lp831
g1
(g34
g3
NtRp832
(dp833
g37
F0.10000000000000001
sg38
(lp834
S'0'
aS'1'
asg40
(lp835
S'0'
aS'1'
aS'1'
aS'1'
aS'1'
aS'1'
aS'0'
aS'1'
aS'0'
aS'1'
aS'1'
aS'1'
aS'0'
aS'0'
aS'1'
aS'1'
aS'1'
aS'1'
aS'1'
aS'1'
aS'1'
aS'1'
aS'0'
aS'1'
aS'1'
aS'1'
aS'1'
aS'1'
aS'0'
aS'0'
asbasg42
g43
sbag1
(g9
g3
NtRp836
(dp837
g12
(dp838
g14
g15
sg16
F100
sg17
F100
sg18
(lp839
F18.090214412242219
aF-0.39635604959670551
aI-1
aI0
aI0
aF0.0012290651631204806
aF1.4461728085856087
aF4.052356840206249e+72
aI0
aI0
aF1.4231386671195831
aF1.1819688647211462
aF1.497464455886891
aI0
aF1
aF1.191775167570813
aF223623762.13415691
aF4.052356840206249e+72
aI0
aI0
aF4.052356840206249e+72
aF4.052356840206249e+72
aF1.3043045862358962
aI0
aI0
aI0
aF1.5430806348152437
aF1
aI0
aI0
aI0
aI0
aI0
aI0
aI0
aI0
aI0
aI0
aI0
aI0
aI0
aI0
aI0
aI0
aI0
aI0
aI0
aI0
aI0
aI0
aI0
aI0
aI0
aI0
aI0
aI0
aI0
aI0
aI0
aI0
aI0
aI0
aI0
aI0
aI0
aI0
aI0
aI0
aI0
aI0
aI0
aI0
aI0
aI0
aI0
aI0
aI0
aI0
aI0
aI0
aI0
aI0
aI0
aI0
aI0
aI0
aI0
aI0
aI0
aI0
aI0
aI0
aI0
aI0
aI0
aI0
aI0
aI0
aI0
aI0
aI0
aI0
aI0
aI0
aI0
aI0
aI0
aI0
aI0
aI0
aI0
aI0
aI0
aI0
aI0
aI0
aI0
aI0
aI0
aI0
aI0
aI0
aI0
aI0
aI0
aI0
aI0
aI0
aI0
aI0
aI0
aI0
aI0
aI0
aI0
aI0
aI0
aI0
aI0
aI0
aI0
aI0
aI0
aI0
aI0
aI0
aI0
aI0
aI0
aI0
aI0
aI0
aI0
aI0
aI0
aI0
aI0
aI0
aI0
aI0
aI0
aI0
aI0
aI0
aI0
aI0
aI0
aI0
aI0
aI0
aI0
aI0
aI0
aI0
aI0
aI0
aI0
aI0
aI0
aI0
aI0
aI0
aI0
aI0
aI0
aI0
aI0
aI0
aI0
aI0
aI0
aI0
aI0
aI0
aI0
aI0
aI0
aI0
aI0
aI0
asg20
F0
sg21
I01
sg22
Nsg23
g24
sg25
F100
sg26
S'uleV=R=dWnu%pha&aSOM9P6se5Bo3tfe'
p840
sg28
S'Error at Chromosome_0|math range error'
p841
ssg30
Nsg31
I0
sg32
(lp842
g1
(g34
g3
NtRp843
(dp844
g37
F0.10000000000000001
sg38
(lp845
S'0'
aS'1'
asg40
(lp846
S'0'
aS'1'
aS'0'
aS'0'
aS'0'
aS'1'
aS'1'
aS'0'
aS'0'
aS'1'
aS'1'
aS'1'
aS'1'
aS'0'
aS'1'
aS'1'
aS'0'
aS'0'
aS'1'
aS'1'
aS'1'
aS'0'
aS'0'
aS'1'
aS'1'
aS'0'
aS'1'
aS'1'
aS'0'
aS'0'
asbasg42
g43
sbag1
(g9
g3
NtRp847
(dp848
g12
(dp849
g14
g15
sg16
F100
sg17
F100
sg18
(lp850
F14.046347006108912
aF8257.3304340021823
aF-0.23300929554170158
aF-1.7615941559557649
aI20
aF1.5148889729542989
aF0.78954267209823448
aI106
aI39
aI10
aF56.469967776275951
aF35457.36480924092
aI-3
aI0
aI0
aF1.543059785562849
aF10.067661995777765
aF1
aI0
aI0
aI0
aF4335.1644700094475
aI0
aI0
aI0
aI0
aI0
aI0
aI0
aI0
aI0
aI0
aI0
aI0
aI0
aI0
aI0
aI0
aI0
aI0
aI0
aI0
aI0
aI0
aI0
aI0
aI0
aI0
aI0
aI0
aI0
aI0
aI0
aI0
aI0
aI0
aI0
aI0
aI0
aI0
aI0
aI0
aI0
aI0
aI0
aI0
aI0
aI0
aI0
aI0
aI0
aI0
aI0
aI0
aI0
aI0
aI0
aI0
aI0
aI0
aI0
aI0
aI0
aI0
aI0
aI0
aI0
aI0
aI0
aI0
aI0
aI0
aI0
aI0
aI0
aI0
aI0
aI0
aI0
aI0
aI0
aI0
aI0
aI0
aI0
aI0
aI0
aI0
aI0
aI0
aI0
aI0
aI0
aI0
aI0
aI0
aI0
aI0
aI0
aI0
aI0
aI0
aI0
aI0
aI0
aI0
aI0
aI0
aI0
aI0
aI0
aI0
aI0
aI0
aI0
aI0
aI0
aI0
aI0
aI0
aI0
aI0
aI0
aI0
aI0
aI0
aI0
aI0
aI0
aI0
aI0
aI0
aI0
aI0
aI0
aI0
aI0
aI0
aI0
aI0
aI0
aI0
aI0
aI0
aI0
aI0
aI0
aI0
aI0
aI0
aI0
aI0
aI0
aI0
aI0
aI0
aI0
aI0
aI0
aI0
aI0
aI0
aI0
aI0
aI0
aI0
aI0
aI0
aI0
aI0
aI0
aI0
aI0
aI0
aI0
aI0
aI0
aI0
aI0
aI0
asg20
F0
sg21
I01
sg22
Nsg23
g24
sg25
F100
sg26
S'xNn57NoOzO28zh&GQpZh2cwrmYXUUi2%'
p851
sg28
S'Error at Chromosome_0|math range error'
p852
ssg30
Nsg31
I0
sg32
(lp853
g1
(g34
g3
NtRp854
(dp855
g37
F0.10000000000000001
sg38
(lp856
S'0'
aS'1'
asg40
(lp857
S'0'
aS'1'
aS'1'
aS'1'
aS'1'
aS'1'
aS'0'
aS'1'
aS'1'
aS'0'
aS'1'
aS'0'
aS'0'
aS'0'
aS'1'
aS'1'
aS'1'
aS'1'
aS'1'
aS'0'
aS'0'
aS'1'
aS'1'
aS'1'
aS'1'
aS'1'
aS'1'
aS'0'
aS'0'
aS'0'
asbasg42
g43
sbag1
(g9
g3
NtRp858
(dp859
g12
(dp860
g14
g15
sg16
F100
sg17
F100
sg18
(lp861
F-0.63204189156327839
aF10.761594155578322
aF98386160095.775803
aF28455907.779412486
aF2.842859999667966e+24
aF29.999999995877694
aF1
aF11013.232920103323
aI0
aI20
aF1
aF2.4463520074491623
aF4.0523508807027805e+72
aF27595332.982949357
aI0
aF167.87857252384407
aF67766.842418129672
aF1.5430806348152437
aI0
aI0
aF1
aI0
aI0
aI0
aI0
aI0
aI0
aI0
aI0
aI0
aI0
aI0
aI0
aI0
aI0
aI0
aI0
aI0
aI0
aI0
aI0
aI0
aI0
aI0
aI0
aI0
aI0
aI0
aI0
aI0
aI0
aI0
aI0
aI0
aI0
aI0
aI0
aI0
aI0
aI0
aI0
aI0
aI0
aI0
aI0
aI0
aI0
aI0
aI0
aI0
aI0
aI0
aI0
aI0
aI0
aI0
aI0
aI0
aI0
aI0
aI0
aI0
aI0
aI0
aI0
aI0
aI0
aI0
aI0
aI0
aI0
aI0
aI0
aI0
aI0
aI0
aI0
aI0
aI0
aI0
aI0
aI0
aI0
aI0
aI0
aI0
aI0
aI0
aI0
aI0
aI0
aI0
aI0
aI0
aI0
aI0
aI0
aI0
aI0
aI0
aI0
aI0
aI0
aI0
aI0
aI0
aI0
aI0
aI0
aI0
aI0
aI0
aI0
aI0
aI0
aI0
aI0
aI0
aI0
aI0
aI0
aI0
aI0
aI0
aI0
aI0
aI0
aI0
aI0
aI0
aI0
aI0
aI0
aI0
aI0
aI0
aI0
aI0
aI0
aI0
aI0
aI0
aI0
aI0
aI0
aI0
aI0
aI0
aI0
aI0
aI0
aI0
aI0
aI0
aI0
aI0
aI0
aI0
aI0
aI0
aI0
aI0
aI0
aI0
aI0
aI0
aI0
aI0
aI0
aI0
aI0
aI0
aI0
aI0
aI0
aI0
aI0
aI0
aI0
aI0
asg20
F0
sg21
I01
sg22
Nsg23
g24
sg25
F100
sg26
S'h49Pbwc3#F%%J=ukVAb2KxNnHldzlypk'
p862
sg28
S'Error at Chromosome_0|math range error'
p863
ssg30
Nsg31
I0
sg32
(lp864
g1
(g34
g3
NtRp865
(dp866
g37
F0.10000000000000001
sg38
(lp867
S'0'
aS'1'
asg40
(lp868
S'1'
aS'1'
aS'0'
aS'1'
aS'0'
aS'1'
aS'1'
aS'1'
aS'1'
aS'0'
aS'0'
aS'1'
aS'1'
aS'1'
aS'1'
aS'0'
aS'0'
aS'1'
aS'0'
aS'0'
aS'0'
aS'1'
aS'1'
aS'1'
aS'1'
aS'1'
aS'0'
aS'1'
aS'0'
aS'0'
asbasg42
g43
sbag1
(g9
g3
NtRp869
(dp870
g12
(dp871
g14
g15
sg16
F100
sg17
F100
sg18
(lp872
F29937.070865949761
aF30038.07084924807
aF242582595.70489514
aF659407866.80349207
aF1.5430806348152437
aF29947.070482943796
aF30300.568246573173
aF1.5430806348152437
aF11013.232920103323
aI0
aF0.76178430883722614
aI0
aI0
aI0
aI0
aF2.4463520074491623
aI0
aI0
aI0
aI0
aI0
aI0
aI0
aI0
aI0
aI0
aI0
aI0
aI0
aI0
aI0
aI0
aI0
aI0
aI0
aI0
aI0
aI0
aI0
aI0
aI0
aI0
aI0
aI0
aI0
aI0
aI0
aI0
aI0
aI0
aI0
aI0
aI0
aI0
aI0
aI0
aI0
aI0
aI0
aI0
aI0
aI0
aI0
aI0
aI0
aI0
aI0
aI0
aI0
aI0
aI0
aI0
aI0
aI0
aI0
aI0
aI0
aI0
aI0
aI0
aI0
aI0
aI0
aI0
aI0
aI0
aI0
aI0
aI0
aI0
aI0
aI0
aI0
aI0
aI0
aI0
aI0
aI0
aI0
aI0
aI0
aI0
aI0
aI0
aI0
aI0
aI0
aI0
aI0
aI0
aI0
aI0
aI0
aI0
aI0
aI0
aI0
aI0
aI0
aI0
aI0
aI0
aI0
aI0
aI0
aI0
aI0
aI0
aI0
aI0
aI0
aI0
aI0
aI0
aI0
aI0
aI0
aI0
aI0
aI0
aI0
aI0
aI0
aI0
aI0
aI0
aI0
aI0
aI0
aI0
aI0
aI0
aI0
aI0
aI0
aI0
aI0
aI0
aI0
aI0
aI0
aI0
aI0
aI0
aI0
aI0
aI0
aI0
aI0
aI0
aI0
aI0
aI0
aI0
aI0
aI0
aI0
aI0
aI0
aI0
aI0
aI0
aI0
aI0
aI0
aI0
aI0
aI0
aI0
aI0
aI0
aI0
aI0
aI0
aI0
aI0
aI0
aI0
aI0
aI0
asg20
F0
sg21
I01
sg22
Nsg23
g24
sg25
F100
sg26
S'dXSP7=A1$bXm#ZKOejN4V2erGXXnkyh9'
p873
sg28
S'Error at Chromosome_0|math range error'
p874
ssg30
Nsg31
I0
sg32
(lp875
g1
(g34
g3
NtRp876
(dp877
g37
F0.10000000000000001
sg38
(lp878
S'0'
aS'1'
asg40
(lp879
S'1'
aS'0'
aS'1'
aS'1'
aS'1'
aS'1'
aS'0'
aS'1'
aS'0'
aS'1'
aS'0'
aS'0'
aS'0'
aS'0'
aS'0'
aS'0'
aS'1'
aS'1'
aS'0'
aS'1'
aS'0'
aS'0'
aS'1'
aS'0'
aS'1'
aS'0'
aS'0'
aS'0'
aS'0'
aS'0'
asbasg42
g43
sbag1
(g9
g3
NtRp880
(dp881
g12
(dp882
g14
g15
sg16
F100
sg17
F100
sg18
(lp883
F0.34190681358295971
aF1.3035913890957285
aF1.5166692073950596
aF1.4237621240384559
aF1
aF3.0090760371971516e+20
aF44017.261686094891
aF72.6550203127575
aF1.2132685647551773
aI0
aF0.83978758764921058
aI8
aF-0.21963341607930145
aF1.2132685647551773
aF0
aF1
aI0
aF1.2724739308584507
aI0
aI0
aI0
aI0
aI0
aI0
aI0
aI0
aI0
aI0
aI0
aI0
aI0
aI0
aI0
aI0
aI0
aI0
aI0
aI0
aI0
aI0
aI0
aI0
aI0
aI0
aI0
aI0
aI0
aI0
aI0
aI0
aI0
aI0
aI0
aI0
aI0
aI0
aI0
aI0
aI0
aI0
aI0
aI0
aI0
aI0
aI0
aI0
aI0
aI0
aI0
aI0
aI0
aI0
aI0
aI0
aI0
aI0
aI0
aI0
aI0
aI0
aI0
aI0
aI0
aI0
aI0
aI0
aI0
aI0
aI0
aI0
aI0
aI0
aI0
aI0
aI0
aI0
aI0
aI0
aI0
aI0
aI0
aI0
aI0
aI0
aI0
aI0
aI0
aI0
aI0
aI0
aI0
aI0
aI0
aI0
aI0
aI0
aI0
aI0
aI0
aI0
aI0
aI0
aI0
aI0
aI0
aI0
aI0
aI0
aI0
aI0
aI0
aI0
aI0
aI0
aI0
aI0
aI0
aI0
aI0
aI0
aI0
aI0
aI0
aI0
aI0
aI0
aI0
aI0
aI0
aI0
aI0
aI0
aI0
aI0
aI0
aI0
aI0
aI0
aI0
aI0
aI0
aI0
aI0
aI0
aI0
aI0
aI0
aI0
aI0
aI0
aI0
aI0
aI0
aI0
aI0
aI0
aI0
aI0
aI0
aI0
aI0
aI0
aI0
aI0
aI0
aI0
aI0
aI0
aI0
aI0
aI0
aI0
aI0
aI0
aI0
aI0
aI0
aI0
aI0
aI0
asg20
F0
sg21
I01
sg22
Nsg23
g24
sg25
F100
sg26
S'j>Okgrpg3KEpbAaQ9f8=bbAXCvak%776'
p884
sg28
S'Error at Chromosome_0|math range error'
p885
ssg30
Nsg31
I0
sg32
(lp886
g1
(g34
g3
NtRp887
(dp888
g37
F0.10000000000000001
sg38
(lp889
S'0'
aS'1'
asg40
(lp890
S'1'
aS'1'
aS'1'
aS'1'
aS'0'
aS'1'
aS'1'
aS'1'
aS'0'
aS'1'
aS'1'
aS'0'
aS'1'
aS'1'
aS'1'
aS'1'
aS'1'
aS'0'
aS'0'
aS'0'
aS'0'
aS'0'
aS'1'
aS'1'
aS'1'
aS'1'
aS'0'
aS'1'
aS'0'
aS'0'
asbasg42
g43
sbag1
(g9
g3
NtRp891
(dp892
g12
(dp893
g14
g15
sg16
F100
sg17
F100
sg18
(lp894
F1
aF2580.0195516172917
aF5.2590851950346386e+68
aF0
aI30
aF11.543080634778905
aF49.918622744884047
aF22687.810758199379
aI0
aI0
aI0
aF1.5430806348152437
aI0
aI0
aI0
aI0
aI0
aI0
aI0
aI0
aI0
aI0
aI0
aI0
aI0
aI0
aI0
aI0
aI0
aI0
aI0
aI0
aI0
aI0
aI0
aI0
aI0
aI0
aI0
aI0
aI0
aI0
aI0
aI0
aI0
aI0
aI0
aI0
aI0
aI0
aI0
aI0
aI0
aI0
aI0
aI0
aI0
aI0
aI0
aI0
aI0
aI0
aI0
aI0
aI0
aI0
aI0
aI0
aI0
aI0
aI0
aI0
aI0
aI0
aI0
aI0
aI0
aI0
aI0
aI0
aI0
aI0
aI0
aI0
aI0
aI0
aI0
aI0
aI0
aI0
aI0
aI0
aI0
aI0
aI0
aI0
aI0
aI0
aI0
aI0
aI0
aI0
aI0
aI0
aI0
aI0
aI0
aI0
aI0
aI0
aI0
aI0
aI0
aI0
aI0
aI0
aI0
aI0
aI0
aI0
aI0
aI0
aI0
aI0
aI0
aI0
aI0
aI0
aI0
aI0
aI0
aI0
aI0
aI0
aI0
aI0
aI0
aI0
aI0
aI0
aI0
aI0
aI0
aI0
aI0
aI0
aI0
aI0
aI0
aI0
aI0
aI0
aI0
aI0
aI0
aI0
aI0
aI0
aI0
aI0
aI0
aI0
aI0
aI0
aI0
aI0
aI0
aI0
aI0
aI0
aI0
aI0
aI0
aI0
aI0
aI0
aI0
aI0
aI0
aI0
aI0
aI0
aI0
aI0
aI0
aI0
aI0
aI0
aI0
aI0
aI0
aI0
aI0
aI0
aI0
aI0
aI0
aI0
aI0
aI0
asg20
F0
sg21
I01
sg22
Nsg23
g24
sg25
F100
sg26
S'2Tc6dwNcN@4SloqjFI47cNPm7LhJ1k@='
p895
sg28
S'Error at Chromosome_0|math range error'
p896
ssg30
Nsg31
I0
sg32
(lp897
g1
(g34
g3
NtRp898
(dp899
g37
F0.10000000000000001
sg38
(lp900
S'0'
aS'1'
asg40
(lp901
S'0'
aS'1'
aS'1'
aS'1'
aS'1'
aS'0'
aS'0'
aS'1'
aS'0'
aS'1'
aS'0'
aS'1'
aS'1'
aS'1'
aS'0'
aS'1'
aS'1'
aS'0'
aS'0'
aS'0'
aS'0'
aS'0'
aS'0'
aS'1'
aS'0'
aS'1'
aS'0'
aS'0'
aS'0'
aS'0'
asbasg42
g43
sbag1
(g9
g3
NtRp902
(dp903
g12
(dp904
g14
g15
sg16
F100
sg17
F100
sg18
(lp905
F11181.232584640717
aF163
aF4.052356840206249e+72
aF1.5430806348152437
aI10
aF29987.070865949761
aF11011.232920103323
aI0
aI0
aI10
aF242582767.70489514
aF11033.232920103323
aI0
aI0
aI0
aF11023.232920103323
aI10
aI0
aI0
aI0
aI0
aI0
aI0
aI0
aI0
aI0
aI0
aI0
aI0
aI0
aI0
aI0
aI0
aI0
aI0
aI0
aI0
aI0
aI0
aI0
aI0
aI0
aI0
aI0
aI0
aI0
aI0
aI0
aI0
aI0
aI0
aI0
aI0
aI0
aI0
aI0
aI0
aI0
aI0
aI0
aI0
aI0
aI0
aI0
aI0
aI0
aI0
aI0
aI0
aI0
aI0
aI0
aI0
aI0
aI0
aI0
aI0
aI0
aI0
aI0
aI0
aI0
aI0
aI0
aI0
aI0
aI0
aI0
aI0
aI0
aI0
aI0
aI0
aI0
aI0
aI0
aI0
aI0
aI0
aI0
aI0
aI0
aI0
aI0
aI0
aI0
aI0
aI0
aI0
aI0
aI0
aI0
aI0
aI0
aI0
aI0
aI0
aI0
aI0
aI0
aI0
aI0
aI0
aI0
aI0
aI0
aI0
aI0
aI0
aI0
aI0
aI0
aI0
aI0
aI0
aI0
aI0
aI0
aI0
aI0
aI0
aI0
aI0
aI0
aI0
aI0
aI0
aI0
aI0
aI0
aI0
aI0
aI0
aI0
aI0
aI0
aI0
aI0
aI0
aI0
aI0
aI0
aI0
aI0
aI0
aI0
aI0
aI0
aI0
aI0
aI0
aI0
aI0
aI0
aI0
aI0
aI0
aI0
aI0
aI0
aI0
aI0
aI0
aI0
aI0
aI0
aI0
aI0
aI0
aI0
aI0
aI0
aI0
aI0
aI0
aI0
aI0
aI0
aI0
aI0
asg20
F0
sg21
I01
sg22
Nsg23
g24
sg25
F100
sg26
S'krHtz$9>fShcWjUTf$ro2lkFcd<gLkHh'
p906
sg28
S'Error at Chromosome_0|math range error'
p907
ssg30
Nsg31
I0
sg32
(lp908
g1
(g34
g3
NtRp909
(dp910
g37
F0.10000000000000001
sg38
(lp911
S'0'
aS'1'
asg40
(lp912
S'0'
aS'1'
aS'0'
aS'1'
aS'1'
aS'1'
aS'0'
aS'1'
aS'0'
aS'0'
aS'1'
aS'0'
aS'1'
aS'1'
aS'0'
aS'0'
aS'1'
aS'1'
aS'0'
aS'0'
aS'1'
aS'0'
aS'1'
aS'1'
aS'0'
aS'0'
aS'0'
aS'0'
aS'0'
aS'0'
asbasg42
g43
sbag1
(g9
g3
NtRp913
(dp914
g12
(dp915
g14
g15
sg16
F100
sg17
F100
sg18
(lp916
F0.76159415547634501
aF0.32869770741321697
aF0
aF0.4953163485157388
aF-0.94268078909979469
aF2.460889247500675e+20
aF0.56626997596147965
aF-1.000000030459959
aF0
aF21
aF4.0523146803047365e+72
aF1
aI0
aF1
aI10
aI0
aI0
aI0
aI0
aI0
aI0
aI0
aI0
aI0
aI0
aI0
aI0
aI0
aI0
aI0
aI0
aI0
aI0
aI0
aI0
aI0
aI0
aI0
aI0
aI0
aI0
aI0
aI0
aI0
aI0
aI0
aI0
aI0
aI0
aI0
aI0
aI0
aI0
aI0
aI0
aI0
aI0
aI0
aI0
aI0
aI0
aI0
aI0
aI0
aI0
aI0
aI0
aI0
aI0
aI0
aI0
aI0
aI0
aI0
aI0
aI0
aI0
aI0
aI0
aI0
aI0
aI0
aI0
aI0
aI0
aI0
aI0
aI0
aI0
aI0
aI0
aI0
aI0
aI0
aI0
aI0
aI0
aI0
aI0
aI0
aI0
aI0
aI0
aI0
aI0
aI0
aI0
aI0
aI0
aI0
aI0
aI0
aI0
aI0
aI0
aI0
aI0
aI0
aI0
aI0
aI0
aI0
aI0
aI0
aI0
aI0
aI0
aI0
aI0
aI0
aI0
aI0
aI0
aI0
aI0
aI0
aI0
aI0
aI0
aI0
aI0
aI0
aI0
aI0
aI0
aI0
aI0
aI0
aI0
aI0
aI0
aI0
aI0
aI0
aI0
aI0
aI0
aI0
aI0
aI0
aI0
aI0
aI0
aI0
aI0
aI0
aI0
aI0
aI0
aI0
aI0
aI0
aI0
aI0
aI0
aI0
aI0
aI0
aI0
aI0
aI0
aI0
aI0
aI0
aI0
aI0
aI0
aI0
aI0
aI0
aI0
aI0
aI0
aI0
aI0
aI0
aI0
aI0
aI0
aI0
asg20
F0
sg21
I01
sg22
Nsg23
g24
sg25
F100
sg26
S'9zSbrL#O%qT7CedATUplxEu1s7HqyOBK'
p917
sg28
S'Error at Chromosome_0|math range error'
p918
ssg30
Nsg31
I0
sg32
(lp919
g1
(g34
g3
NtRp920
(dp921
g37
F0.10000000000000001
sg38
(lp922
S'0'
aS'1'
asg40
(lp923
S'1'
aS'1'
aS'0'
aS'0'
aS'1'
aS'0'
aS'1'
aS'1'
aS'0'
aS'1'
aS'1'
aS'1'
aS'1'
aS'0'
aS'1'
aS'0'
aS'0'
aS'0'
aS'0'
aS'0'
aS'1'
aS'0'
aS'1'
aS'0'
aS'1'
aS'1'
aS'0'
aS'0'
aS'0'
aS'0'
asbasg42
g43
sbag1
(g9
g3
NtRp924
(dp925
g12
(dp926
g14
g15
sg16
F100
sg17
F100
sg18
(lp927
F0.5308273414655913
aF0.96001075218241927
aF11406.260285782746
aF0
aI0
aF40635.145559406454
aF-1.2262480326409237
aF1.0982799115487039
aF2.0088970726893107e+87
aI0
aF27275.818205312884
aF29946.070865949761
aI20
aI40
aI0
aI40
aF0.30430458623589618
aI0
aI0
aI0
aI10
aI0
aI0
aI0
aI0
aI0
aI0
aI0
aI0
aI0
aI0
aI0
aI0
aI0
aI0
aI0
aI0
aI0
aI0
aI0
aI0
aI0
aI0
aI0
aI0
aI0
aI0
aI0
aI0
aI0
aI0
aI0
aI0
aI0
aI0
aI0
aI0
aI0
aI0
aI0
aI0
aI0
aI0
aI0
aI0
aI0
aI0
aI0
aI0
aI0
aI0
aI0
aI0
aI0
aI0
aI0
aI0
aI0
aI0
aI0
aI0
aI0
aI0
aI0
aI0
aI0
aI0
aI0
aI0
aI0
aI0
aI0
aI0
aI0
aI0
aI0
aI0
aI0
aI0
aI0
aI0
aI0
aI0
aI0
aI0
aI0
aI0
aI0
aI0
aI0
aI0
aI0
aI0
aI0
aI0
aI0
aI0
aI0
aI0
aI0
aI0
aI0
aI0
aI0
aI0
aI0
aI0
aI0
aI0
aI0
aI0
aI0
aI0
aI0
aI0
aI0
aI0
aI0
aI0
aI0
aI0
aI0
aI0
aI0
aI0
aI0
aI0
aI0
aI0
aI0
aI0
aI0
aI0
aI0
aI0
aI0
aI0
aI0
aI0
aI0
aI0
aI0
aI0
aI0
aI0
aI0
aI0
aI0
aI0
aI0
aI0
aI0
aI0
aI0
aI0
aI0
aI0
aI0
aI0
aI0
aI0
aI0
aI0
aI0
aI0
aI0
aI0
aI0
aI0
aI0
aI0
aI0
aI0
aI0
aI0
aI0
aI0
aI0
aI0
aI0
asg20
F0
sg21
I01
sg22
Nsg23
g24
sg25
F100
sg26
S'BXncnyf5MxORJbakmDn9iQ>PEPnd8Hya'
p928
sg28
S'Error at Chromosome_0|math range error'
p929
ssg30
Nsg31
I0
sg32
(lp930
g1
(g34
g3
NtRp931
(dp932
g37
F0.10000000000000001
sg38
(lp933
S'0'
aS'1'
asg40
(lp934
S'1'
aS'0'
aS'1'
aS'1'
aS'1'
aS'0'
aS'0'
aS'0'
aS'0'
aS'1'
aS'0'
aS'1'
aS'1'
aS'1'
aS'0'
aS'1'
aS'1'
aS'1'
aS'1'
aS'0'
aS'0'
aS'1'
aS'0'
aS'0'
aS'1'
aS'0'
aS'1'
aS'0'
aS'0'
aS'0'
asbasg42
g43
sbag1
(g9
g3
NtRp935
(dp936
g12
(dp937
g14
g15
sg16
F100
sg17
F100
sg18
(lp938
F10.999999999442107
aF8.1847111942239312
aF8.0389295532570344
aF4.052356840206249e+72
aF11023.232920103323
aF1.3771386681361857
aF1.0631988500451437
aF0.76159415595576485
aF1
aI0
aF1.4241451611524267
aF1.1511285919839405
aI0
aI0
aI0
aF242582596.70489514
aF0.89493350752960321
aI0
aI0
aI0
aI0
aI0
aI0
aI0
aI0
aI0
aI0
aI0
aI0
aI0
aI0
aI0
aI0
aI0
aI0
aI0
aI0
aI0
aI0
aI0
aI0
aI0
aI0
aI0
aI0
aI0
aI0
aI0
aI0
aI0
aI0
aI0
aI0
aI0
aI0
aI0
aI0
aI0
aI0
aI0
aI0
aI0
aI0
aI0
aI0
aI0
aI0
aI0
aI0
aI0
aI0
aI0
aI0
aI0
aI0
aI0
aI0
aI0
aI0
aI0
aI0
aI0
aI0
aI0
aI0
aI0
aI0
aI0
aI0
aI0
aI0
aI0
aI0
aI0
aI0
aI0
aI0
aI0
aI0
aI0
aI0
aI0
aI0
aI0
aI0
aI0
aI0
aI0
aI0
aI0
aI0
aI0
aI0
aI0
aI0
aI0
aI0
aI0
aI0
aI0
aI0
aI0
aI0
aI0
aI0
aI0
aI0
aI0
aI0
aI0
aI0
aI0
aI0
aI0
aI0
aI0
aI0
aI0
aI0
aI0
aI0
aI0
aI0
aI0
aI0
aI0
aI0
aI0
aI0
aI0
aI0
aI0
aI0
aI0
aI0
aI0
aI0
aI0
aI0
aI0
aI0
aI0
aI0
aI0
aI0
aI0
aI0
aI0
aI0
aI0
aI0
aI0
aI0
aI0
aI0
aI0
aI0
aI0
aI0
aI0
aI0
aI0
aI0
aI0
aI0
aI0
aI0
aI0
aI0
aI0
aI0
aI0
aI0
aI0
aI0
aI0
aI0
aI0
aI0
aI0
asg20
F0
sg21
I01
sg22
Nsg23
g24
sg25
F100
sg26
S'2Q25R7wo&nd8@Iit4?ylU4OYo2YSo>?V'
p939
sg28
S'Error at Chromosome_0|math range error'
p940
ssg30
Nsg31
I0
sg32
(lp941
g1
(g34
g3
NtRp942
(dp943
g37
F0.10000000000000001
sg38
(lp944
S'0'
aS'1'
asg40
(lp945
S'0'
aS'1'
aS'0'
aS'1'
aS'1'
aS'0'
aS'1'
aS'0'
aS'1'
aS'0'
aS'1'
aS'0'
aS'1'
aS'1'
aS'1'
aS'1'
aS'1'
aS'1'
aS'1'
aS'1'
aS'1'
aS'0'
aS'0'
aS'1'
aS'0'
aS'0'
aS'1'
aS'1'
aS'0'
aS'0'
asbasg42
g43
sbag1
(g9
g3
NtRp946
(dp947
g12
(dp948
g14
g15
sg16
F100
sg17
F100
sg18
(lp949
F101.4461728085856
aF26.761594155955763
aI80
aF2.4463520074491623
aI0
aF97864804807.419388
aF29956.069954067745
aF5.8163792453876901
aI0
aI-3
aF12553185.660260914
aF51.543080634593963
aI0
aI-3
aI0
aF259564288.38321769
aF4.052356840206249e+72
aF2.4463520074491623
aI0
aI0
aF29937.070865949761
aI0
aI0
aI0
aI0
aI0
aI0
aI0
aI0
aI0
aI0
aI0
aI0
aI0
aI0
aI0
aI0
aI0
aI0
aI0
aI0
aI0
aI0
aI0
aI0
aI0
aI0
aI0
aI0
aI0
aI0
aI0
aI0
aI0
aI0
aI0
aI0
aI0
aI0
aI0
aI0
aI0
aI0
aI0
aI0
aI0
aI0
aI0
aI0
aI0
aI0
aI0
aI0
aI0
aI0
aI0
aI0
aI0
aI0
aI0
aI0
aI0
aI0
aI0
aI0
aI0
aI0
aI0
aI0
aI0
aI0
aI0
aI0
aI0
aI0
aI0
aI0
aI0
aI0
aI0
aI0
aI0
aI0
aI0
aI0
aI0
aI0
aI0
aI0
aI0
aI0
aI0
aI0
aI0
aI0
aI0
aI0
aI0
aI0
aI0
aI0
aI0
aI0
aI0
aI0
aI0
aI0
aI0
aI0
aI0
aI0
aI0
aI0
aI0
aI0
aI0
aI0
aI0
aI0
aI0
aI0
aI0
aI0
aI0
aI0
aI0
aI0
aI0
aI0
aI0
aI0
aI0
aI0
aI0
aI0
aI0
aI0
aI0
aI0
aI0
aI0
aI0
aI0
aI0
aI0
aI0
aI0
aI0
aI0
aI0
aI0
aI0
aI0
aI0
aI0
aI0
aI0
aI0
aI0
aI0
aI0
aI0
aI0
aI0
aI0
aI0
aI0
aI0
aI0
aI0
aI0
aI0
aI0
aI0
aI0
aI0
aI0
aI0
aI0
aI0
asg20
F0
sg21
I01
sg22
Nsg23
g24
sg25
F100
sg26
S'vvZiRy6cxPCGs1FujHVgf7ZitHknnPAO'
p950
sg28
S'Error at Chromosome_0|math range error'
p951
ssg30
Nsg31
I0
sg32
(lp952
g1
(g34
g3
NtRp953
(dp954
g37
F0.10000000000000001
sg38
(lp955
S'0'
aS'1'
asg40
(lp956
S'0'
aS'0'
aS'1'
aS'0'
aS'0'
aS'0'
aS'0'
aS'1'
aS'0'
aS'0'
aS'1'
aS'1'
aS'0'
aS'0'
aS'1'
aS'0'
aS'0'
aS'1'
aS'0'
aS'1'
aS'0'
aS'0'
aS'0'
aS'0'
aS'1'
aS'1'
aS'0'
aS'0'
aS'0'
aS'0'
asbasg42
g43
sbag1
(g9
g3
NtRp957
(dp958
g12
(dp959
g14
g15
sg16
F100
sg17
F100
sg18
(lp960
F27499.655670177704
aF-10.231993375971999
aF8.4711261846430038e+31
aF17
aI0
aF878.04233478956291
aF1429.1762518144064
aF9
aF3.7621956910836314
aI-1
aF46837.709350461126
aF6224.4902698023125
aF1.5430806348152437
aF11013.232920103323
aF242582597.70489514
aI40
aF1.5430806348152437
aF1
aI0
aI0
aI0
aI0
aI0
aI0
aI0
aI0
aI0
aI0
aI0
aI0
aI0
aI0
aI0
aI0
aI0
aI0
aI0
aI0
aI0
aI0
aI0
aI0
aI0
aI0
aI0
aI0
aI0
aI0
aI0
aI0
aI0
aI0
aI0
aI0
aI0
aI0
aI0
aI0
aI0
aI0
aI0
aI0
aI0
aI0
aI0
aI0
aI0
aI0
aI0
aI0
aI0
aI0
aI0
aI0
aI0
aI0
aI0
aI0
aI0
aI0
aI0
aI0
aI0
aI0
aI0
aI0
aI0
aI0
aI0
aI0
aI0
aI0
aI0
aI0
aI0
aI0
aI0
aI0
aI0
aI0
aI0
aI0
aI0
aI0
aI0
aI0
aI0
aI0
aI0
aI0
aI0
aI0
aI0
aI0
aI0
aI0
aI0
aI0
aI0
aI0
aI0
aI0
aI0
aI0
aI0
aI0
aI0
aI0
aI0
aI0
aI0
aI0
aI0
aI0
aI0
aI0
aI0
aI0
aI0
aI0
aI0
aI0
aI0
aI0
aI0
aI0
aI0
aI0
aI0
aI0
aI0
aI0
aI0
aI0
aI0
aI0
aI0
aI0
aI0
aI0
aI0
aI0
aI0
aI0
aI0
aI0
aI0
aI0
aI0
aI0
aI0
aI0
aI0
aI0
aI0
aI0
aI0
aI0
aI0
aI0
aI0
aI0
aI0
aI0
aI0
aI0
aI0
aI0
aI0
aI0
aI0
aI0
aI0
aI0
aI0
aI0
aI0
aI0
aI0
aI0
asg20
F0
sg21
I01
sg22
Nsg23
g24
sg25
F100
sg26
S'Bj2LZCTCzDmcstoXX#fjtzagn3&niYwi'
p961
sg28
S'Error at Chromosome_0|math range error'
p962
ssg30
Nsg31
I0
sg32
(lp963
g1
(g34
g3
NtRp964
(dp965
g37
F0.10000000000000001
sg38
(lp966
S'0'
aS'1'
asg40
(lp967
S'0'
aS'1'
aS'1'
aS'0'
aS'1'
aS'0'
aS'1'
aS'0'
aS'0'
aS'0'
aS'1'
aS'1'
aS'0'
aS'1'
aS'1'
aS'1'
aS'1'
aS'0'
aS'0'
aS'0'
aS'0'
aS'1'
aS'1'
aS'0'
aS'1'
aS'1'
aS'0'
aS'0'
aS'0'
aS'0'
asbasg42
g43
sbag1
(g9
g3
NtRp968
(dp969
g12
(dp970
g14
g15
sg16
F100
sg17
F100
sg18
(lp971
F-3.2378043089163686
aF1.7616727002843492e+95
aF4.052356840206249e+72
aI-1
aF1
aF35.446352007449164
aF4.2191783343707269e+26
aF242582633.70489514
aF2.4463520074491623
aI0
aI0
aI17
aF4.052356840206249e+72
aI0
aI0
aI0
aI20
aI0
aI0
aI0
aI0
aI0
aI0
aI0
aI0
aI0
aI0
aI0
aI0
aI0
aI0
aI0
aI0
aI0
aI0
aI0
aI0
aI0
aI0
aI0
aI0
aI0
aI0
aI0
aI0
aI0
aI0
aI0
aI0
aI0
aI0
aI0
aI0
aI0
aI0
aI0
aI0
aI0
aI0
aI0
aI0
aI0
aI0
aI0
aI0
aI0
aI0
aI0
aI0
aI0
aI0
aI0
aI0
aI0
aI0
aI0
aI0
aI0
aI0
aI0
aI0
aI0
aI0
aI0
aI0
aI0
aI0
aI0
aI0
aI0
aI0
aI0
aI0
aI0
aI0
aI0
aI0
aI0
aI0
aI0
aI0
aI0
aI0
aI0
aI0
aI0
aI0
aI0
aI0
aI0
aI0
aI0
aI0
aI0
aI0
aI0
aI0
aI0
aI0
aI0
aI0
aI0
aI0
aI0
aI0
aI0
aI0
aI0
aI0
aI0
aI0
aI0
aI0
aI0
aI0
aI0
aI0
aI0
aI0
aI0
aI0
aI0
aI0
aI0
aI0
aI0
aI0
aI0
aI0
aI0
aI0
aI0
aI0
aI0
aI0
aI0
aI0
aI0
aI0
aI0
aI0
aI0
aI0
aI0
aI0
aI0
aI0
aI0
aI0
aI0
aI0
aI0
aI0
aI0
aI0
aI0
aI0
aI0
aI0
aI0
aI0
aI0
aI0
aI0
aI0
aI0
aI0
aI0
aI0
aI0
aI0
aI0
aI0
aI0
aI0
aI0
aI0
aI0
aI0
aI0
asg20
F0
sg21
I01
sg22
Nsg23
g24
sg25
F100
sg26
S'exmngXjYxf3<SBzv3Ik#Rc6UoLfVBDAO'
p972
sg28
S'Error at Chromosome_0|math range error'
p973
ssg30
Nsg31
I0
sg32
(lp974
g1
(g34
g3
NtRp975
(dp976
g37
F0.10000000000000001
sg38
(lp977
S'0'
aS'1'
asg40
(lp978
S'0'
aS'1'
aS'1'
aS'0'
aS'1'
aS'1'
aS'0'
aS'0'
aS'0'
aS'0'
aS'1'
aS'0'
aS'1'
aS'1'
aS'1'
aS'1'
aS'0'
aS'0'
aS'0'
aS'0'
aS'0'
aS'0'
aS'1'
aS'1'
aS'0'
aS'1'
aS'0'
aS'1'
aS'0'
aS'0'
asbasg42
g43
sbag1
(g9
g3
NtRp979
(dp980
g12
(dp981
g14
g15
sg16
F100
sg17
F100
sg18
(lp982
F4.4514098541554591e+20
aF1.6509097737615877
aF29947.070865949761
aF1.1646612298707746
aF0
aF3.4081154913472624
aF-0.35798500798800026
aF11013.232920103323
aF11013.232920103323
aI0
aF1.0281699998401692
aF1.4463520074491623
aF242582597.70489514
aI0
aI0
aF1.5430806348152437
aF1.5430806348152437
aI0
aI0
aI0
aI0
aI0
aI0
aI0
aI0
aI0
aI0
aI0
aI0
aI0
aI0
aI0
aI0
aI0
aI0
aI0
aI0
aI0
aI0
aI0
aI0
aI0
aI0
aI0
aI0
aI0
aI0
aI0
aI0
aI0
aI0
aI0
aI0
aI0
aI0
aI0
aI0
aI0
aI0
aI0
aI0
aI0
aI0
aI0
aI0
aI0
aI0
aI0
aI0
aI0
aI0
aI0
aI0
aI0
aI0
aI0
aI0
aI0
aI0
aI0
aI0
aI0
aI0
aI0
aI0
aI0
aI0
aI0
aI0
aI0
aI0
aI0
aI0
aI0
aI0
aI0
aI0
aI0
aI0
aI0
aI0
aI0
aI0
aI0
aI0
aI0
aI0
aI0
aI0
aI0
aI0
aI0
aI0
aI0
aI0
aI0
aI0
aI0
aI0
aI0
aI0
aI0
aI0
aI0
aI0
aI0
aI0
aI0
aI0
aI0
aI0
aI0
aI0
aI0
aI0
aI0
aI0
aI0
aI0
aI0
aI0
aI0
aI0
aI0
aI0
aI0
aI0
aI0
aI0
aI0
aI0
aI0
aI0
aI0
aI0
aI0
aI0
aI0
aI0
aI0
aI0
aI0
aI0
aI0
aI0
aI0
aI0
aI0
aI0
aI0
aI0
aI0
aI0
aI0
aI0
aI0
aI0
aI0
aI0
aI0
aI0
aI0
aI0
aI0
aI0
aI0
aI0
aI0
aI0
aI0
aI0
aI0
aI0
aI0
aI0
aI0
aI0
aI0
aI0
aI0
asg20
F0
sg21
I01
sg22
Nsg23
g24
sg25
F100
sg26
S'8M1c2e93iAAO>f&=6gT73M2dhQLuAcFj'
p983
sg28
S'Error at Chromosome_0|math range error'
p984
ssg30
Nsg31
I0
sg32
(lp985
g1
(g34
g3
NtRp986
(dp987
g37
F0.10000000000000001
sg38
(lp988
S'0'
aS'1'
asg40
(lp989
S'1'
aS'0'
aS'0'
aS'1'
aS'1'
aS'1'
aS'1'
aS'1'
aS'1'
aS'1'
aS'1'
aS'1'
aS'0'
aS'1'
aS'1'
aS'1'
aS'1'
aS'0'
aS'1'
aS'0'
aS'1'
aS'1'
aS'1'
aS'1'
aS'1'
aS'0'
aS'1'
aS'0'
aS'0'
aS'0'
asbasg42
g43
sbag1
(g9
g3
NtRp990
(dp991
g12
(dp992
g14
g15
sg16
F100
sg17
F100
sg18
(lp993
F0.43979766119941688
aF242582804.70489514
aF29934.073353762615
aF2.4463520074491623
aF29937.070865949761
aF1
aF0.57625831494560531
aF3065.2788963540343
aF4059.5420254925939
aF1.5430806348152437
aF4.0523549144604667e+72
aF16890.725261468422
aF4443054.2602539929
aF51550.722096349731
aF1.5430806348152437
aF11013.232920103323
aF7.3699399784686949e+229
aF4.052356840206249e+72
aF5.8163792453876901
aI0
aI0
aF5.8163792453876901
aF1.5430806348152437
aI0
aI0
aI0
aF1.5430806348152437
aI0
aI0
aI0
aI0
aI0
aI0
aI0
aI0
aI0
aI0
aI0
aI0
aI0
aI0
aI0
aI0
aI0
aI0
aI0
aI0
aI0
aI0
aI0
aI0
aI0
aI0
aI0
aI0
aI0
aI0
aI0
aI0
aI0
aI0
aI0
aI0
aI0
aI0
aI0
aI0
aI0
aI0
aI0
aI0
aI0
aI0
aI0
aI0
aI0
aI0
aI0
aI0
aI0
aI0
aI0
aI0
aI0
aI0
aI0
aI0
aI0
aI0
aI0
aI0
aI0
aI0
aI0
aI0
aI0
aI0
aI0
aI0
aI0
aI0
aI0
aI0
aI0
aI0
aI0
aI0
aI0
aI0
aI0
aI0
aI0
aI0
aI0
aI0
aI0
aI0
aI0
aI0
aI0
aI0
aI0
aI0
aI0
aI0
aI0
aI0
aI0
aI0
aI0
aI0
aI0
aI0
aI0
aI0
aI0
aI0
aI0
aI0
aI0
aI0
aI0
aI0
aI0
aI0
aI0
aI0
aI0
aI0
aI0
aI0
aI0
aI0
aI0
aI0
aI0
aI0
aI0
aI0
aI0
aI0
aI0
aI0
aI0
aI0
aI0
aI0
aI0
aI0
aI0
aI0
aI0
aI0
aI0
aI0
aI0
aI0
aI0
aI0
aI0
aI0
aI0
aI0
aI0
aI0
aI0
aI0
aI0
aI0
aI0
aI0
aI0
aI0
aI0
aI0
aI0
aI0
aI0
aI0
aI0
asg20
F0
sg21
I01
sg22
Nsg23
g24
sg25
F100
sg26
S'IasShAJeG#qmDXv@%NBdld47nxMEs6eO'
p994
sg28
S'Error at Chromosome_0|math range error'
p995
ssg30
Nsg31
I0
sg32
(lp996
g1
(g34
g3
NtRp997
(dp998
g37
F0.10000000000000001
sg38
(lp999
S'0'
aS'1'
asg40
(lp1000
S'1'
aS'0'
aS'1'
aS'0'
aS'0'
aS'0'
aS'0'
aS'0'
aS'1'
aS'1'
aS'0'
aS'1'
aS'1'
aS'1'
aS'0'
aS'0'
aS'0'
aS'0'
aS'0'
aS'0'
aS'0'
aS'1'
aS'0'
aS'1'
aS'0'
aS'0'
aS'0'
aS'1'
aS'0'
aS'0'
asbasg42
g43
sbag1
(g9
g3
NtRp1001
(dp1002
g12
(dp1003
g14
g15
sg16
F100
sg17
F100
sg18
(lp1004
F16647.731403452432
aF140.87857252384407
aF32.4354654077422
aI20
aI0
aF-0.99199167832601232
aF4.7552372819334474
aF51530.722096349724
aI0
aI0
aF1.3619401411150382
aF51530.722096349724
aF64154.435519017716
aF5.8163792453876901
aI0
aF51530.722096349724
aF29947.070865949761
aI0
aI0
aI0
aI0
aI0
aI0
aI0
aI0
aI0
aI0
aI0
aI0
aI0
aI0
aI0
aI0
aI0
aI0
aI0
aI0
aI0
aI0
aI0
aI0
aI0
aI0
aI0
aI0
aI0
aI0
aI0
aI0
aI0
aI0
aI0
aI0
aI0
aI0
aI0
aI0
aI0
aI0
aI0
aI0
aI0
aI0
aI0
aI0
aI0
aI0
aI0
aI0
aI0
aI0
aI0
aI0
aI0
aI0
aI0
aI0
aI0
aI0
aI0
aI0
aI0
aI0
aI0
aI0
aI0
aI0
aI0
aI0
aI0
aI0
aI0
aI0
aI0
aI0
aI0
aI0
aI0
aI0
aI0
aI0
aI0
aI0
aI0
aI0
aI0
aI0
aI0
aI0
aI0
aI0
aI0
aI0
aI0
aI0
aI0
aI0
aI0
aI0
aI0
aI0
aI0
aI0
aI0
aI0
aI0
aI0
aI0
aI0
aI0
aI0
aI0
aI0
aI0
aI0
aI0
aI0
aI0
aI0
aI0
aI0
aI0
aI0
aI0
aI0
aI0
aI0
aI0
aI0
aI0
aI0
aI0
aI0
aI0
aI0
aI0
aI0
aI0
aI0
aI0
aI0
aI0
aI0
aI0
aI0
aI0
aI0
aI0
aI0
aI0
aI0
aI0
aI0
aI0
aI0
aI0
aI0
aI0
aI0
aI0
aI0
aI0
aI0
aI0
aI0
aI0
aI0
aI0
aI0
aI0
aI0
aI0
aI0
aI0
aI0
aI0
aI0
aI0
aI0
aI0
asg20
F0
sg21
I01
sg22
Nsg23
g24
sg25
F100
sg26
S'xdS9VKMeu%po=nfHNgAo2&$SRSqxM$fY'
p1005
sg28
S'Error at Chromosome_0|math range error'
p1006
ssg30
Nsg31
I0
sg32
(lp1007
g1
(g34
g3
NtRp1008
(dp1009
g37
F0.10000000000000001
sg38
(lp1010
S'0'
aS'1'
asg40
(lp1011
S'0'
aS'0'
aS'1'
aS'1'
aS'0'
aS'1'
aS'1'
aS'1'
aS'1'
aS'0'
aS'1'
aS'1'
aS'1'
aS'1'
aS'1'
aS'1'
aS'0'
aS'1'
aS'1'
aS'1'
aS'0'
aS'0'
aS'0'
aS'0'
aS'0'
aS'0'
aS'0'
aS'1'
aS'0'
aS'0'
asbasg42
g43
sbag1
(g9
g3
NtRp1012
(dp1013
g12
(dp1014
g14
g15
sg16
F100
sg17
F100
sg18
(lp1015
F2.2886840940981543e+132
aF242582659.3158395
aF1.5430806299707034
aI0
aI0
aF1.1769263341851024e+17
aF4.052356840206249e+72
aF0.99999999944210638
aF2.4463520074491623
aF0
aF0.99999999944210638
aF2.4463519275286352
aF1.1511285919839405
aF1.5430806348152437
aI0
aI0
aI0
aI0
aI0
aI0
aI0
aI0
aI0
aI0
aI0
aI0
aI0
aI0
aI0
aI0
aI0
aI0
aI0
aI0
aI0
aI0
aI0
aI0
aI0
aI0
aI0
aI0
aI0
aI0
aI0
aI0
aI0
aI0
aI0
aI0
aI0
aI0
aI0
aI0
aI0
aI0
aI0
aI0
aI0
aI0
aI0
aI0
aI0
aI0
aI0
aI0
aI0
aI0
aI0
aI0
aI0
aI0
aI0
aI0
aI0
aI0
aI0
aI0
aI0
aI0
aI0
aI0
aI0
aI0
aI0
aI0
aI0
aI0
aI0
aI0
aI0
aI0
aI0
aI0
aI0
aI0
aI0
aI0
aI0
aI0
aI0
aI0
aI0
aI0
aI0
aI0
aI0
aI0
aI0
aI0
aI0
aI0
aI0
aI0
aI0
aI0
aI0
aI0
aI0
aI0
aI0
aI0
aI0
aI0
aI0
aI0
aI0
aI0
aI0
aI0
aI0
aI0
aI0
aI0
aI0
aI0
aI0
aI0
aI0
aI0
aI0
aI0
aI0
aI0
aI0
aI0
aI0
aI0
aI0
aI0
aI0
aI0
aI0
aI0
aI0
aI0
aI0
aI0
aI0
aI0
aI0
aI0
aI0
aI0
aI0
aI0
aI0
aI0
aI0
aI0
aI0
aI0
aI0
aI0
aI0
aI0
aI0
aI0
aI0
aI0
aI0
aI0
aI0
aI0
aI0
aI0
aI0
aI0
aI0
aI0
aI0
aI0
aI0
aI0
aI0
aI0
aI0
aI0
aI0
aI0
asg20
F0
sg21
I01
sg22
Nsg23
g24
sg25
F100
sg26
S'iOemn43L>TJv8YSg5wHBD=IIPEuNAmFx'
p1016
sg28
S'Error at Chromosome_0|math range error'
p1017
ssg30
Nsg31
I0
sg32
(lp1018
g1
(g34
g3
NtRp1019
(dp1020
g37
F0.10000000000000001
sg38
(lp1021
S'0'
aS'1'
asg40
(lp1022
S'0'
aS'1'
aS'0'
aS'0'
aS'0'
aS'1'
aS'0'
aS'0'
aS'0'
aS'0'
aS'1'
aS'0'
aS'1'
aS'1'
aS'1'
aS'1'
aS'1'
aS'1'
aS'1'
aS'1'
aS'0'
aS'0'
aS'0'
aS'1'
aS'0'
aS'1'
aS'0'
aS'0'
aS'0'
aS'0'
asbasg42
g43
sbag1
(g9
g3
NtRp1023
(dp1024
g12
(dp1025
g14
g15
sg16
F100
sg17
F100
sg18
(lp1026
F5262.703799603215
aF1.3959091965517436
aF1
aF1
aF2.0088970726893107e+87
aF5.8163792366274647
aF11380306697110600
aF4.052356840206249e+72
aI-1
aI0
aF2.8065063422436458e+57
aF1
aF242582597.70489514
aF29937.070865949761
aI0
aF2.4047007272387049
aI0
aI0
aI0
aI0
aI0
aI0
aI0
aI0
aI0
aI0
aI0
aI0
aI0
aI0
aI0
aI0
aI0
aI0
aI0
aI0
aI0
aI0
aI0
aI0
aI0
aI0
aI0
aI0
aI0
aI0
aI0
aI0
aI0
aI0
aI0
aI0
aI0
aI0
aI0
aI0
aI0
aI0
aI0
aI0
aI0
aI0
aI0
aI0
aI0
aI0
aI0
aI0
aI0
aI0
aI0
aI0
aI0
aI0
aI0
aI0
aI0
aI0
aI0
aI0
aI0
aI0
aI0
aI0
aI0
aI0
aI0
aI0
aI0
aI0
aI0
aI0
aI0
aI0
aI0
aI0
aI0
aI0
aI0
aI0
aI0
aI0
aI0
aI0
aI0
aI0
aI0
aI0
aI0
aI0
aI0
aI0
aI0
aI0
aI0
aI0
aI0
aI0
aI0
aI0
aI0
aI0
aI0
aI0
aI0
aI0
aI0
aI0
aI0
aI0
aI0
aI0
aI0
aI0
aI0
aI0
aI0
aI0
aI0
aI0
aI0
aI0
aI0
aI0
aI0
aI0
aI0
aI0
aI0
aI0
aI0
aI0
aI0
aI0
aI0
aI0
aI0
aI0
aI0
aI0
aI0
aI0
aI0
aI0
aI0
aI0
aI0
aI0
aI0
aI0
aI0
aI0
aI0
aI0
aI0
aI0
aI0
aI0
aI0
aI0
aI0
aI0
aI0
aI0
aI0
aI0
aI0
aI0
aI0
aI0
aI0
aI0
aI0
aI0
aI0
aI0
aI0
aI0
aI0
aI0
asg20
F0
sg21
I01
sg22
Nsg23
g24
sg25
F100
sg26
S'v72rGu?HO$8Z6CBW=RKlkF&tdMSE&IyG'
p1027
sg28
S'Error at Chromosome_0|math range error'
p1028
ssg30
Nsg31
I0
sg32
(lp1029
g1
(g34
g3
NtRp1030
(dp1031
g37
F0.10000000000000001
sg38
(lp1032
S'0'
aS'1'
asg40
(lp1033
S'1'
aS'0'
aS'0'
aS'0'
aS'0'
aS'1'
aS'0'
aS'1'
aS'0'
aS'1'
aS'1'
aS'1'
aS'1'
aS'0'
aS'0'
aS'1'
aS'0'
aS'0'
aS'1'
aS'0'
aS'0'
aS'1'
aS'0'
aS'0'
aS'0'
aS'0'
aS'0'
aS'1'
aS'0'
aS'0'
asbasg42
g43
sbag1
(g9
g3
NtRp1034
(dp1035
g12
(dp1036
g14
g15
sg16
F100
sg17
F100
sg18
(lp1037
F1.385599954385536
aF5343237290812.2314
aI0
aI0
aI0
aF0.56626997596147965
aF51
aF1135039682.0313311
aF1.5430806348152437
aI0
aF0.76159415595576485
aF2800894956.7252998
aF11053.232920103323
aF2.4463520074491623
aF1
aF2.4463520074491623
aF29937.070865949761
aF167.87857252384407
aF1
aI0
aI0
aI0
aI0
aI0
aI0
aI0
aI0
aI0
aI0
aI0
aI0
aI0
aI0
aI0
aI0
aI0
aI0
aI0
aI0
aI0
aI0
aI0
aI0
aI0
aI0
aI0
aI0
aI0
aI0
aI0
aI0
aI0
aI0
aI0
aI0
aI0
aI0
aI0
aI0
aI0
aI0
aI0
aI0
aI0
aI0
aI0
aI0
aI0
aI0
aI0
aI0
aI0
aI0
aI0
aI0
aI0
aI0
aI0
aI0
aI0
aI0
aI0
aI0
aI0
aI0
aI0
aI0
aI0
aI0
aI0
aI0
aI0
aI0
aI0
aI0
aI0
aI0
aI0
aI0
aI0
aI0
aI0
aI0
aI0
aI0
aI0
aI0
aI0
aI0
aI0
aI0
aI0
aI0
aI0
aI0
aI0
aI0
aI0
aI0
aI0
aI0
aI0
aI0
aI0
aI0
aI0
aI0
aI0
aI0
aI0
aI0
aI0
aI0
aI0
aI0
aI0
aI0
aI0
aI0
aI0
aI0
aI0
aI0
aI0
aI0
aI0
aI0
aI0
aI0
aI0
aI0
aI0
aI0
aI0
aI0
aI0
aI0
aI0
aI0
aI0
aI0
aI0
aI0
aI0
aI0
aI0
aI0
aI0
aI0
aI0
aI0
aI0
aI0
aI0
aI0
aI0
aI0
aI0
aI0
aI0
aI0
aI0
aI0
aI0
aI0
aI0
aI0
aI0
aI0
aI0
aI0
aI0
aI0
aI0
aI0
aI0
aI0
aI0
aI0
aI0
asg20
F0
sg21
I01
sg22
Nsg23
g24
sg25
F100
sg26
S'LuEy9qdzdgVu&Q=CILctcbnUPrkziy&N'
p1038
sg28
S'Error at Chromosome_0|math range error'
p1039
ssg30
Nsg31
I0
sg32
(lp1040
g1
(g34
g3
NtRp1041
(dp1042
g37
F0.10000000000000001
sg38
(lp1043
S'0'
aS'1'
asg40
(lp1044
S'1'
aS'0'
aS'1'
aS'1'
aS'0'
aS'0'
aS'1'
aS'1'
aS'1'
aS'1'
aS'1'
aS'1'
aS'0'
aS'0'
aS'0'
aS'1'
aS'0'
aS'1'
aS'1'
aS'1'
aS'1'
aS'1'
aS'0'
aS'0'
aS'1'
aS'1'
aS'0'
aS'0'
aS'0'
aS'0'
asbasg42
g43
sbag1
(g9
g3
NtRp1045
(dp1046
g12
(dp1047
g14
g15
sg16
F100
sg17
F100
sg18
(lp1048
F0.99999999944210638
aF-0.62278694962506098
aI0
aF2.4463520074491623
aF11033.232920103323
aF0.76159415595576485
aF0.76159415595576485
aF5.8163792453876901
aI0
aI0
aI18
aF76244.024582872386
aF167.87857252384407
aI0
aI0
aI0
aI0
aI0
aI0
aI0
aI0
aI0
aI0
aI0
aI0
aI0
aI0
aI0
aI0
aI0
aI0
aI0
aI0
aI0
aI0
aI0
aI0
aI0
aI0
aI0
aI0
aI0
aI0
aI0
aI0
aI0
aI0
aI0
aI0
aI0
aI0
aI0
aI0
aI0
aI0
aI0
aI0
aI0
aI0
aI0
aI0
aI0
aI0
aI0
aI0
aI0
aI0
aI0
aI0
aI0
aI0
aI0
aI0
aI0
aI0
aI0
aI0
aI0
aI0
aI0
aI0
aI0
aI0
aI0
aI0
aI0
aI0
aI0
aI0
aI0
aI0
aI0
aI0
aI0
aI0
aI0
aI0
aI0
aI0
aI0
aI0
aI0
aI0
aI0
aI0
aI0
aI0
aI0
aI0
aI0
aI0
aI0
aI0
aI0
aI0
aI0
aI0
aI0
aI0
aI0
aI0
aI0
aI0
aI0
aI0
aI0
aI0
aI0
aI0
aI0
aI0
aI0
aI0
aI0
aI0
aI0
aI0
aI0
aI0
aI0
aI0
aI0
aI0
aI0
aI0
aI0
aI0
aI0
aI0
aI0
aI0
aI0
aI0
aI0
aI0
aI0
aI0
aI0
aI0
aI0
aI0
aI0
aI0
aI0
aI0
aI0
aI0
aI0
aI0
aI0
aI0
aI0
aI0
aI0
aI0
aI0
aI0
aI0
aI0
aI0
aI0
aI0
aI0
aI0
aI0
aI0
aI0
aI0
aI0
aI0
aI0
aI0
aI0
aI0
aI0
aI0
aI0
aI0
aI0
aI0
asg20
F0
sg21
I01
sg22
Nsg23
g24
sg25
F100
sg26
S'VjkJCELAuX4eALrvEfJ#d$VmX$uJTfqN'
p1049
sg28
S'Error at Chromosome_0|math range error'
p1050
ssg30
Nsg31
I0
sg32
(lp1051
g1
(g34
g3
NtRp1052
(dp1053
g37
F0.10000000000000001
sg38
(lp1054
S'0'
aS'1'
asg40
(lp1055
S'0'
aS'1'
aS'0'
aS'1'
aS'1'
aS'0'
aS'1'
aS'0'
aS'1'
aS'0'
aS'0'
aS'1'
aS'1'
aS'0'
aS'1'
aS'0'
aS'1'
aS'1'
aS'0'
aS'0'
aS'0'
aS'1'
aS'1'
aS'0'
aS'0'
aS'0'
aS'0'
aS'1'
aS'0'
aS'0'
asbasg42
g43
sbag1
(g9
g3
NtRp1056
(dp1057
g12
(dp1058
g14
g15
sg16
F100
sg17
F100
sg18
(lp1059
F51610.722062564266
aF29957.070839044471
aF9.7660105615395416
aF4.052356840206249e+72
aI0
aF11023.232920103323
aF29494.594592444482
aF10.999999999101272
aF1
aF1
aF1
aF11013.232920103323
aF11053.232920103323
aI0
aI0
aI0
aF11013.232920103323
aI0
aI0
aI0
aI0
aI0
aI0
aI0
aI0
aI0
aI0
aI0
aI0
aI0
aI0
aI0
aI0
aI0
aI0
aI0
aI0
aI0
aI0
aI0
aI0
aI0
aI0
aI0
aI0
aI0
aI0
aI0
aI0
aI0
aI0
aI0
aI0
aI0
aI0
aI0
aI0
aI0
aI0
aI0
aI0
aI0
aI0
aI0
aI0
aI0
aI0
aI0
aI0
aI0
aI0
aI0
aI0
aI0
aI0
aI0
aI0
aI0
aI0
aI0
aI0
aI0
aI0
aI0
aI0
aI0
aI0
aI0
aI0
aI0
aI0
aI0
aI0
aI0
aI0
aI0
aI0
aI0
aI0
aI0
aI0
aI0
aI0
aI0
aI0
aI0
aI0
aI0
aI0
aI0
aI0
aI0
aI0
aI0
aI0
aI0
aI0
aI0
aI0
aI0
aI0
aI0
aI0
aI0
aI0
aI0
aI0
aI0
aI0
aI0
aI0
aI0
aI0
aI0
aI0
aI0
aI0
aI0
aI0
aI0
aI0
aI0
aI0
aI0
aI0
aI0
aI0
aI0
aI0
aI0
aI0
aI0
aI0
aI0
aI0
aI0
aI0
aI0
aI0
aI0
aI0
aI0
aI0
aI0
aI0
aI0
aI0
aI0
aI0
aI0
aI0
aI0
aI0
aI0
aI0
aI0
aI0
aI0
aI0
aI0
aI0
aI0
aI0
aI0
aI0
aI0
aI0
aI0
aI0
aI0
aI0
aI0
aI0
aI0
aI0
aI0
aI0
aI0
aI0
aI0
asg20
F0
sg21
I01
sg22
Nsg23
g24
sg25
F100
sg26
S'L63@OjscV=Z%A?9kEtBdf2PbFa7XGGje'
p1060
sg28
S'Error at Chromosome_0|math range error'
p1061
ssg30
Nsg31
I0
sg32
(lp1062
g1
(g34
g3
NtRp1063
(dp1064
g37
F0.10000000000000001
sg38
(lp1065
S'0'
aS'1'
asg40
(lp1066
S'0'
aS'0'
aS'0'
aS'0'
aS'1'
aS'0'
aS'1'
aS'0'
aS'0'
aS'1'
aS'0'
aS'0'
aS'0'
aS'0'
aS'1'
aS'1'
aS'1'
aS'0'
aS'0'
aS'0'
aS'0'
aS'1'
aS'0'
aS'1'
aS'0'
aS'1'
aS'0'
aS'0'
aS'0'
aS'0'
asbasg42
g43
sbag1
(g9
g3
NtRp1067
(dp1068
g12
(dp1069
g14
g15
sg16
F100
sg17
F100
sg18
(lp1070
F659407877.24160731
aF9.9295400152738961e+61
aF9.9126365759632122
aF4.052356840206249e+72
aF1
aF51528.722096349724
aF2800895081.7252998
aF242582594.70489514
aF11013.232920103323
aI0
aF29937.070865949761
aF1
aF9
aI0
aI0
aI0
aI20
aI0
aI0
aI0
aI0
aI0
aI0
aI0
aI0
aI0
aI0
aI0
aI0
aI0
aI0
aI0
aI0
aI0
aI0
aI0
aI0
aI0
aI0
aI0
aI0
aI0
aI0
aI0
aI0
aI0
aI0
aI0
aI0
aI0
aI0
aI0
aI0
aI0
aI0
aI0
aI0
aI0
aI0
aI0
aI0
aI0
aI0
aI0
aI0
aI0
aI0
aI0
aI0
aI0
aI0
aI0
aI0
aI0
aI0
aI0
aI0
aI0
aI0
aI0
aI0
aI0
aI0
aI0
aI0
aI0
aI0
aI0
aI0
aI0
aI0
aI0
aI0
aI0
aI0
aI0
aI0
aI0
aI0
aI0
aI0
aI0
aI0
aI0
aI0
aI0
aI0
aI0
aI0
aI0
aI0
aI0
aI0
aI0
aI0
aI0
aI0
aI0
aI0
aI0
aI0
aI0
aI0
aI0
aI0
aI0
aI0
aI0
aI0
aI0
aI0
aI0
aI0
aI0
aI0
aI0
aI0
aI0
aI0
aI0
aI0
aI0
aI0
aI0
aI0
aI0
aI0
aI0
aI0
aI0
aI0
aI0
aI0
aI0
aI0
aI0
aI0
aI0
aI0
aI0
aI0
aI0
aI0
aI0
aI0
aI0
aI0
aI0
aI0
aI0
aI0
aI0
aI0
aI0
aI0
aI0
aI0
aI0
aI0
aI0
aI0
aI0
aI0
aI0
aI0
aI0
aI0
aI0
aI0
aI0
aI0
aI0
aI0
aI0
aI0
aI0
aI0
aI0
aI0
aI0
asg20
F0
sg21
I01
sg22
Nsg23
g24
sg25
F100
sg26
S'WK8KstflY@1H@?pkSp>hTK<<Gl3owrMG'
p1071
sg28
S'Error at Chromosome_0|math range error'
p1072
ssg30
Nsg31
I0
sg32
(lp1073
g1
(g34
g3
NtRp1074
(dp1075
g37
F0.10000000000000001
sg38
(lp1076
S'0'
aS'1'
asg40
(lp1077
S'1'
aS'0'
aS'0'
aS'1'
aS'0'
aS'1'
aS'0'
aS'1'
aS'0'
aS'1'
aS'1'
aS'0'
aS'0'
aS'0'
aS'1'
aS'0'
aS'0'
aS'1'
aS'0'
aS'1'
aS'0'
aS'1'
aS'1'
aS'0'
aS'0'
aS'0'
aS'1'
aS'1'
aS'0'
aS'0'
asbasg42
g43
sbag1
(g9
g3
NtRp1078
(dp1079
g12
(dp1080
g14
g15
sg16
F100
sg17
F100
sg18
(lp1081
F0.5126146671514058
aF1.043843355934313
aF4.052356840206249e+72
aF5.8163792453876901
aF2.4463520074491623
aF4.052356840206249e+72
aF11039.232920103323
aF2.5885638931185782e+58
aF8.9259099329153967e+76
aF29937.070865949761
aF11131.232920103323
aF4.052356840206249e+72
aI30
aF46821.327230765637
aF11013.232920103323
aF38.54308063481524
aF32.446352007449164
aF3697738.8338995399
aI0
aI0
aI0
aF29947.070865949761
aI0
aI0
aI0
aI0
aI0
aI0
aI0
aI0
aI0
aI0
aI0
aI0
aI0
aI0
aI0
aI0
aI0
aI0
aI0
aI0
aI0
aI0
aI0
aI0
aI0
aI0
aI0
aI0
aI0
aI0
aI0
aI0
aI0
aI0
aI0
aI0
aI0
aI0
aI0
aI0
aI0
aI0
aI0
aI0
aI0
aI0
aI0
aI0
aI0
aI0
aI0
aI0
aI0
aI0
aI0
aI0
aI0
aI0
aI0
aI0
aI0
aI0
aI0
aI0
aI0
aI0
aI0
aI0
aI0
aI0
aI0
aI0
aI0
aI0
aI0
aI0
aI0
aI0
aI0
aI0
aI0
aI0
aI0
aI0
aI0
aI0
aI0
aI0
aI0
aI0
aI0
aI0
aI0
aI0
aI0
aI0
aI0
aI0
aI0
aI0
aI0
aI0
aI0
aI0
aI0
aI0
aI0
aI0
aI0
aI0
aI0
aI0
aI0
aI0
aI0
aI0
aI0
aI0
aI0
aI0
aI0
aI0
aI0
aI0
aI0
aI0
aI0
aI0
aI0
aI0
aI0
aI0
aI0
aI0
aI0
aI0
aI0
aI0
aI0
aI0
aI0
aI0
aI0
aI0
aI0
aI0
aI0
aI0
aI0
aI0
aI0
aI0
aI0
aI0
aI0
aI0
aI0
aI0
aI0
aI0
aI0
aI0
aI0
aI0
aI0
aI0
aI0
aI0
aI0
aI0
aI0
aI0
aI0
aI0
aI0
aI0
aI0
aI0
asg20
F0
sg21
I01
sg22
Nsg23
g24
sg25
F100
sg26
S'nko15Zy4gnLP@<L8uSin1fzVK?mPhJ3x'
p1082
sg28
S'Error at Chromosome_0|math range error'
p1083
ssg30
Nsg31
I0
sg32
(lp1084
g1
(g34
g3
NtRp1085
(dp1086
g37
F0.10000000000000001
sg38
(lp1087
S'0'
aS'1'
asg40
(lp1088
S'1'
aS'0'
aS'1'
aS'0'
aS'0'
aS'1'
aS'1'
aS'1'
aS'1'
aS'0'
aS'0'
aS'1'
aS'0'
aS'1'
aS'1'
aS'0'
aS'1'
aS'0'
aS'0'
aS'1'
aS'0'
aS'0'
aS'1'
aS'1'
aS'0'
aS'0'
aS'0'
aS'1'
aS'0'
aS'0'
asbasg42
g43
sbag1
(g9
g3
NtRp1089
(dp1090
g12
(dp1091
g14
g15
sg16
F100
sg17
F100
sg18
(lp1092
F70.99999999944211
aF11.151128589942248
aF1.1511285919839405
aI0
aI0
aF31
aF3.5299185278023448
aF8.9259099329153967e+76
aF29977.07084924807
aI0
aF328864867.66592675
aF291733134525260.19
aF8.9259099329153967e+76
aF10.999999999442107
aF1.5430806348152437
aF4071.5420254925939
aF4.052356840206249e+72
aI0
aI0
aI0
aI0
aI0
aI0
aI0
aI0
aI0
aI0
aI0
aI0
aI0
aI0
aI0
aI0
aI0
aI0
aI0
aI0
aI0
aI0
aI0
aI0
aI0
aI0
aI0
aI0
aI0
aI0
aI0
aI0
aI0
aI0
aI0
aI0
aI0
aI0
aI0
aI0
aI0
aI0
aI0
aI0
aI0
aI0
aI0
aI0
aI0
aI0
aI0
aI0
aI0
aI0
aI0
aI0
aI0
aI0
aI0
aI0
aI0
aI0
aI0
aI0
aI0
aI0
aI0
aI0
aI0
aI0
aI0
aI0
aI0
aI0
aI0
aI0
aI0
aI0
aI0
aI0
aI0
aI0
aI0
aI0
aI0
aI0
aI0
aI0
aI0
aI0
aI0
aI0
aI0
aI0
aI0
aI0
aI0
aI0
aI0
aI0
aI0
aI0
aI0
aI0
aI0
aI0
aI0
aI0
aI0
aI0
aI0
aI0
aI0
aI0
aI0
aI0
aI0
aI0
aI0
aI0
aI0
aI0
aI0
aI0
aI0
aI0
aI0
aI0
aI0
aI0
aI0
aI0
aI0
aI0
aI0
aI0
aI0
aI0
aI0
aI0
aI0
aI0
aI0
aI0
aI0
aI0
aI0
aI0
aI0
aI0
aI0
aI0
aI0
aI0
aI0
aI0
aI0
aI0
aI0
aI0
aI0
aI0
aI0
aI0
aI0
aI0
aI0
aI0
aI0
aI0
aI0
aI0
aI0
aI0
aI0
aI0
aI0
aI0
aI0
aI0
aI0
aI0
aI0
asg20
F0
sg21
I01
sg22
Nsg23
g24
sg25
F100
sg26
S'XIGwNG67t$A?Dz?yc@MeP=K1wi#eMsbl'
p1093
sg28
S'Error at Chromosome_0|math range error'
p1094
ssg30
Nsg31
I0
sg32
(lp1095
g1
(g34
g3
NtRp1096
(dp1097
g37
F0.10000000000000001
sg38
(lp1098
S'0'
aS'1'
asg40
(lp1099
S'0'
aS'1'
aS'0'
aS'0'
aS'1'
aS'0'
aS'0'
aS'0'
aS'0'
aS'0'
aS'1'
aS'0'
aS'0'
aS'0'
aS'1'
aS'1'
aS'0'
aS'0'
aS'1'
aS'0'
aS'0'
aS'1'
aS'1'
aS'0'
aS'0'
aS'1'
aS'1'
aS'1'
aS'0'
aS'0'
asbasg42
g43
sbag1
(g9
g3
NtRp1100
(dp1101
g12
(dp1102
g14
g15
sg16
F100
sg17
F100
sg18
(lp1103
F43940601.801951557
aF0.34190681358295971
aF0.89432119342919258
aF1
aF1.5430806348152437
aF0.99999999944210638
aF0.76159415595576485
aF2.2411498475036815
aF4.052356840206249e+72
aF2.4463520074491623
aF7.9126365756899997
aF11
aF21
aF2.4463520074491623
aI0
aF11
aF10.999999999442107
aF5.8163792453876901
aF1.5430806348152437
aI0
aI0
aI0
aI0
aI0
aI0
aI0
aI0
aI0
aI0
aI0
aI0
aI0
aI0
aI0
aI0
aI0
aI0
aI0
aI0
aI0
aI0
aI0
aI0
aI0
aI0
aI0
aI0
aI0
aI0
aI0
aI0
aI0
aI0
aI0
aI0
aI0
aI0
aI0
aI0
aI0
aI0
aI0
aI0
aI0
aI0
aI0
aI0
aI0
aI0
aI0
aI0
aI0
aI0
aI0
aI0
aI0
aI0
aI0
aI0
aI0
aI0
aI0
aI0
aI0
aI0
aI0
aI0
aI0
aI0
aI0
aI0
aI0
aI0
aI0
aI0
aI0
aI0
aI0
aI0
aI0
aI0
aI0
aI0
aI0
aI0
aI0
aI0
aI0
aI0
aI0
aI0
aI0
aI0
aI0
aI0
aI0
aI0
aI0
aI0
aI0
aI0
aI0
aI0
aI0
aI0
aI0
aI0
aI0
aI0
aI0
aI0
aI0
aI0
aI0
aI0
aI0
aI0
aI0
aI0
aI0
aI0
aI0
aI0
aI0
aI0
aI0
aI0
aI0
aI0
aI0
aI0
aI0
aI0
aI0
aI0
aI0
aI0
aI0
aI0
aI0
aI0
aI0
aI0
aI0
aI0
aI0
aI0
aI0
aI0
aI0
aI0
aI0
aI0
aI0
aI0
aI0
aI0
aI0
aI0
aI0
aI0
aI0
aI0
aI0
aI0
aI0
aI0
aI0
aI0
aI0
aI0
aI0
aI0
aI0
aI0
aI0
aI0
aI0
aI0
aI0
asg20
F0
sg21
I01
sg22
Nsg23
g24
sg25
F100
sg26
S'J##Q2Iv3ykJq@AMp4<eEe$JTf<>A@Bhu'
p1104
sg28
S'Error at Chromosome_0|math range error'
p1105
ssg30
Nsg31
I0
sg32
(lp1106
g1
(g34
g3
NtRp1107
(dp1108
g37
F0.10000000000000001
sg38
(lp1109
S'0'
aS'1'
asg40
(lp1110
S'1'
aS'0'
aS'0'
aS'1'
aS'0'
aS'0'
aS'0'
aS'1'
aS'1'
aS'1'
aS'1'
aS'0'
aS'1'
aS'1'
aS'1'
aS'0'
aS'0'
aS'1'
aS'0'
aS'0'
aS'1'
aS'1'
aS'1'
aS'0'
aS'0'
aS'1'
aS'1'
aS'0'
aS'0'
aS'0'
asbasg42
g43
sbag1
(g9
g3
NtRp1111
(dp1112
g12
(dp1113
g14
g15
sg16
F100
sg17
F100
sg18
(lp1114
F-0.72849007565889867
aF97864804714.419388
aF2.592352764293536e+21
aF1.1769263341851e+17
aF5343237290762.2314
aF10.761594155955764
aF29944.070865949761
aF1.5430806348152437
aF1
aF1
aF1402.4765136549756
aF242582724.70489514
aF1.5430806348152437
aI0
aI0
aF1.0114416784150566
aF242582615.70489514
aI0
aI0
aI0
aF1.5430806348152437
aI0
aI0
aI0
aI0
aI0
aI0
aI0
aI0
aI0
aI0
aI0
aI0
aI0
aI0
aI0
aI0
aI0
aI0
aI0
aI0
aI0
aI0
aI0
aI0
aI0
aI0
aI0
aI0
aI0
aI0
aI0
aI0
aI0
aI0
aI0
aI0
aI0
aI0
aI0
aI0
aI0
aI0
aI0
aI0
aI0
aI0
aI0
aI0
aI0
aI0
aI0
aI0
aI0
aI0
aI0
aI0
aI0
aI0
aI0
aI0
aI0
aI0
aI0
aI0
aI0
aI0
aI0
aI0
aI0
aI0
aI0
aI0
aI0
aI0
aI0
aI0
aI0
aI0
aI0
aI0
aI0
aI0
aI0
aI0
aI0
aI0
aI0
aI0
aI0
aI0
aI0
aI0
aI0
aI0
aI0
aI0
aI0
aI0
aI0
aI0
aI0
aI0
aI0
aI0
aI0
aI0
aI0
aI0
aI0
aI0
aI0
aI0
aI0
aI0
aI0
aI0
aI0
aI0
aI0
aI0
aI0
aI0
aI0
aI0
aI0
aI0
aI0
aI0
aI0
aI0
aI0
aI0
aI0
aI0
aI0
aI0
aI0
aI0
aI0
aI0
aI0
aI0
aI0
aI0
aI0
aI0
aI0
aI0
aI0
aI0
aI0
aI0
aI0
aI0
aI0
aI0
aI0
aI0
aI0
aI0
aI0
aI0
aI0
aI0
aI0
aI0
aI0
aI0
aI0
aI0
aI0
aI0
aI0
aI0
aI0
aI0
aI0
aI0
aI0
asg20
F0
sg21
I01
sg22
Nsg23
g24
sg25
F100
sg26
S'LVTsLBV3oe2RMINl2rfFFNR8?#8$?fK#'
p1115
sg28
S'Error at Chromosome_0|math range error'
p1116
ssg30
Nsg31
I0
sg32
(lp1117
g1
(g34
g3
NtRp1118
(dp1119
g37
F0.10000000000000001
sg38
(lp1120
S'0'
aS'1'
asg40
(lp1121
S'1'
aS'1'
aS'1'
aS'0'
aS'1'
aS'0'
aS'1'
aS'0'
aS'1'
aS'1'
aS'0'
aS'1'
aS'0'
aS'0'
aS'1'
aS'1'
aS'1'
aS'0'
aS'0'
aS'0'
aS'1'
aS'1'
aS'1'
aS'1'
aS'1'
aS'1'
aS'1'
aS'0'
aS'0'
aS'0'
asbasg42
g43
sbag1
(g9
g3
NtRp1122
(dp1123
g12
(dp1124
g14
g15
sg16
F100
sg17
F100
sg18
(lp1125
F18.039367695732125
aF1
aF-0.087363424036788428
aF0.91263657596321157
aF1
aF89241186.481593639
aF2.4463054340163066
aF2.7641830094190274e+20
aF1
aF29947.070865949761
aF0.91263657596321157
aF108012.01676109189
aF1.5430807324761227
aF0.64201499201199974
aI8
aF0.64201499201199974
aF2.4463520074491623
aI18
aI0
aI0
aF0.76159415595576485
aF1.5430806348152437
aI0
aI0
aI0
aI0
aI0
aI0
aI0
aI0
aI0
aI0
aI0
aI0
aI0
aI0
aI0
aI0
aI0
aI0
aI0
aI0
aI0
aI0
aI0
aI0
aI0
aI0
aI0
aI0
aI0
aI0
aI0
aI0
aI0
aI0
aI0
aI0
aI0
aI0
aI0
aI0
aI0
aI0
aI0
aI0
aI0
aI0
aI0
aI0
aI0
aI0
aI0
aI0
aI0
aI0
aI0
aI0
aI0
aI0
aI0
aI0
aI0
aI0
aI0
aI0
aI0
aI0
aI0
aI0
aI0
aI0
aI0
aI0
aI0
aI0
aI0
aI0
aI0
aI0
aI0
aI0
aI0
aI0
aI0
aI0
aI0
aI0
aI0
aI0
aI0
aI0
aI0
aI0
aI0
aI0
aI0
aI0
aI0
aI0
aI0
aI0
aI0
aI0
aI0
aI0
aI0
aI0
aI0
aI0
aI0
aI0
aI0
aI0
aI0
aI0
aI0
aI0
aI0
aI0
aI0
aI0
aI0
aI0
aI0
aI0
aI0
aI0
aI0
aI0
aI0
aI0
aI0
aI0
aI0
aI0
aI0
aI0
aI0
aI0
aI0
aI0
aI0
aI0
aI0
aI0
aI0
aI0
aI0
aI0
aI0
aI0
aI0
aI0
aI0
aI0
aI0
aI0
aI0
aI0
aI0
aI0
aI0
aI0
aI0
aI0
aI0
aI0
aI0
aI0
aI0
aI0
aI0
aI0
aI0
aI0
aI0
aI0
aI0
aI0
asg20
F0
sg21
I01
sg22
Nsg23
g24
sg25
F100
sg26
S'Fqbj@aWgcgRo?JwDw3k#i?&X$>Z9vXR$'
p1126
sg28
S'Error at Chromosome_0|math range error'
p1127
ssg30
Nsg31
I0
sg32
(lp1128
g1
(g34
g3
NtRp1129
(dp1130
g37
F0.10000000000000001
sg38
(lp1131
S'0'
aS'1'
asg40
(lp1132
S'0'
aS'0'
aS'0'
aS'1'
aS'1'
aS'1'
aS'1'
aS'1'
aS'0'
aS'0'
aS'0'
aS'1'
aS'1'
aS'1'
aS'0'
aS'1'
aS'1'
aS'1'
aS'0'
aS'0'
aS'0'
aS'1'
aS'0'
aS'0'
aS'0'
aS'0'
aS'0'
aS'1'
aS'0'
aS'0'
asbasg42
g43
sbasS'goal'
p1133
I0
sS'maxgenerations'
p1134
I100
sb.