ccopy_reg
_reconstructor
p1
(cgenetic
Population
p2
c__builtin__
object
p3
NtRp4
(dp5
S'generation'
p6
I80
sS'agents'
p7
(lp8
g1
(cgenetic
Organism
p9
g3
NtRp10
(dp11
S'status'
p12
(dp13
S'death'
p14
NsS'vitality'
p15
F100
sS'lifespan'
p16
F100
sS'blood'
p17
(lp18
F14959.003359776103
aF63928.474880038484
aF-1.7615941559557755
aI-1
aF1.04390291356442
aF28
aF35.125197682116344
aF2.4080282775358159
aF1.5430806348152437
aF2.4463520074491623
aF26
aF1.5256388188322765
aI0
aI0
aI0
aI0
aI0
aI0
aI0
aI0
aI0
aI0
aI0
aI0
aI0
aI0
aI0
aI0
aI0
aI0
aI0
aI0
aI0
aI0
aI0
aI0
aI0
aI0
aI0
aI0
aI0
aI0
aI0
aI0
aI0
aI0
aI0
aI0
aI0
aI0
aI0
aI0
aI0
aI0
aI0
aI0
aI0
aI0
aI0
aI0
aI0
aI0
aI0
aI0
aI0
aI0
aI0
aI0
aI0
aI0
aI0
aI0
aI0
aI0
aI0
aI0
aI0
aI0
aI0
aI0
aI0
aI0
aI0
aI0
aI0
aI0
aI0
aI0
aI0
aI0
aI0
aI0
aI0
aI0
aI0
aI0
aI0
aI0
aI0
aI0
aI0
aI0
aI0
aI0
aI0
aI0
aI0
aI0
aI0
aI0
aI0
aI0
aI0
aI0
aI0
aI0
aI0
aI0
aI0
aI0
aI0
aI0
aI0
aI0
aI0
aI0
aI0
aI0
aI0
aI0
aI0
aI0
aI0
aI0
aI0
aI0
aI0
aI0
aI0
aI0
aI0
aI0
aI0
aI0
aI0
aI0
aI0
aI0
aI0
aI0
aI0
aI0
aI0
aI0
aI0
aI0
aI0
aI0
aI0
aI0
aI0
aI0
aI0
aI0
aI0
aI0
aI0
aI0
aI0
aI0
aI0
aI0
aI0
aI0
aI0
aI0
aI0
aI0
aI0
aI0
aI0
aI0
aI0
aI0
aI0
aI0
aI0
aI0
aI0
aI0
aI0
aI0
aI0
aI0
aI0
aI0
aI0
aI0
aI0
aI0
asS'age'
p19
F0
sS'alive'
p20
I01
sS'deme'
p21
S'pop_01'
p22
sS'location'
p23
(I0
I0
I0
tp24
sS'fitness'
p25
F100
sS'identity'
p26
S'ItnTGeGZjoYv7ISl23&RYN8<vZAU$kzD'
p27
sS'chromosome_error'
p28
S'Error at Chromosome_0|math range error'
p29
ssS'gender'
p30
NsS'additional_mutation_rate'
p31
I0
sS'genome'
p32
(lp33
g1
(cgenetic
Chromosome
p34
g3
NtRp35
(dp36
S'background_mutation'
p37
F0.10000000000000001
sS'base'
p38
(lp39
S'0'
aS'1'
asS'sequence'
p40
(lp41
S'1'
aS'1'
aS'0'
aS'0'
aS'0'
aS'1'
aS'0'
aS'1'
aS'1'
aS'0'
aS'0'
aS'1'
aS'0'
aS'1'
aS'1'
aS'0'
aS'1'
aS'0'
aS'0'
aS'0'
aS'0'
aS'1'
aS'0'
aS'1'
aS'1'
aS'1'
aS'0'
aS'1'
aS'0'
aS'0'
asbasS'mutation_type'
p42
S'point'
p43
sbag1
(g9
g3
NtRp44
(dp45
g12
(dp46
g14
Nsg15
F100
sg16
F100
sg17
(lp47
F0.0077657758203081165
aI28
aF11
aF11013.232920103323
aF1.5430806348152437
aF100.64201499201201
aF-12.537868325673717
aF18.999999972839205
aF21.53303186578411
aI-2
aI63
aF43296700211996872
aF2.4337300240385202
aI-1
aF0
aI21
aI17
aF0
aI0
aI0
aI9
aI0
aI0
aI0
aI0
aI0
aI0
aI0
aI0
aI0
aI0
aI0
aI0
aI0
aI0
aI0
aI0
aI0
aI0
aI0
aI0
aI0
aI0
aI0
aI0
aI0
aI0
aI0
aI0
aI0
aI0
aI0
aI0
aI0
aI0
aI0
aI0
aI0
aI0
aI0
aI0
aI0
aI0
aI0
aI0
aI0
aI0
aI0
aI0
aI0
aI0
aI0
aI0
aI0
aI0
aI0
aI0
aI0
aI0
aI0
aI0
aI0
aI0
aI0
aI0
aI0
aI0
aI0
aI0
aI0
aI0
aI0
aI0
aI0
aI0
aI0
aI0
aI0
aI0
aI0
aI0
aI0
aI0
aI0
aI0
aI0
aI0
aI0
aI0
aI0
aI0
aI0
aI0
aI0
aI0
aI0
aI0
aI0
aI0
aI0
aI0
aI0
aI0
aI0
aI0
aI0
aI0
aI0
aI0
aI0
aI0
aI0
aI0
aI0
aI0
aI0
aI0
aI0
aI0
aI0
aI0
aI0
aI0
aI0
aI0
aI0
aI0
aI0
aI0
aI0
aI0
aI0
aI0
aI0
aI0
aI0
aI0
aI0
aI0
aI0
aI0
aI0
aI0
aI0
aI0
aI0
aI0
aI0
aI0
aI0
aI0
aI0
aI0
aI0
aI0
aI0
aI0
aI0
aI0
aI0
aI0
aI0
aI0
aI0
aI0
aI0
aI0
aI0
aI0
aI0
aI0
aI0
aI0
aI0
aI0
aI0
aI0
aI0
aI0
aI0
asg19
F0
sg20
I01
sg21
g22
sg23
g24
sg25
F100
sg26
S'rgUdCEthPgRD6WcW&H&Bs3US$B98m?LN'
p48
sg28
S'Error at Chromosome_0|math range error'
p49
ssg30
Nsg31
I0
sg32
(lp50
g1
(g34
g3
NtRp51
(dp52
g37
F0.10000000000000001
sg38
(lp53
S'0'
aS'1'
asg40
(lp54
S'0'
aS'1'
aS'1'
aS'1'
aS'0'
aS'1'
aS'1'
aS'0'
aS'1'
aS'1'
aS'1'
aS'1'
aS'0'
aS'0'
aS'0'
aS'0'
aS'0'
aS'0'
aS'0'
aS'0'
aS'0'
aS'0'
aS'1'
aS'0'
aS'0'
aS'0'
aS'0'
aS'1'
aS'0'
aS'0'
asbasg42
g43
sbag1
(g9
g3
NtRp55
(dp56
g12
(dp57
g14
Nsg15
F100
sg16
F100
sg17
(lp58
F12077625.327000616
aF847.13075452628118
aF1634518.6862362083
aI0
aI20
aF164420.10190017606
aF11006.232920103323
aI0
aI0
aI0
aF29947.070865949761
aF20.912636575853661
aF0
aI0
aI0
aI0
aF0.99999999944210638
aI0
aI0
aI0
aI0
aI0
aI0
aI0
aI0
aI0
aI0
aI0
aI0
aI0
aI0
aI0
aI0
aI0
aI0
aI0
aI0
aI0
aI0
aI0
aI0
aI0
aI0
aI0
aI0
aI0
aI0
aI0
aI0
aI0
aI0
aI0
aI0
aI0
aI0
aI0
aI0
aI0
aI0
aI0
aI0
aI0
aI0
aI0
aI0
aI0
aI0
aI0
aI0
aI0
aI0
aI0
aI0
aI0
aI0
aI0
aI0
aI0
aI0
aI0
aI0
aI0
aI0
aI0
aI0
aI0
aI0
aI0
aI0
aI0
aI0
aI0
aI0
aI0
aI0
aI0
aI0
aI0
aI0
aI0
aI0
aI0
aI0
aI0
aI0
aI0
aI0
aI0
aI0
aI0
aI0
aI0
aI0
aI0
aI0
aI0
aI0
aI0
aI0
aI0
aI0
aI0
aI0
aI0
aI0
aI0
aI0
aI0
aI0
aI0
aI0
aI0
aI0
aI0
aI0
aI0
aI0
aI0
aI0
aI0
aI0
aI0
aI0
aI0
aI0
aI0
aI0
aI0
aI0
aI0
aI0
aI0
aI0
aI0
aI0
aI0
aI0
aI0
aI0
aI0
aI0
aI0
aI0
aI0
aI0
aI0
aI0
aI0
aI0
aI0
aI0
aI0
aI0
aI0
aI0
aI0
aI0
aI0
aI0
aI0
aI0
aI0
aI0
aI0
aI0
aI0
aI0
aI0
aI0
aI0
aI0
aI0
aI0
aI0
aI0
aI0
aI0
aI0
aI0
aI0
asg19
F0
sg20
I01
sg21
g22
sg23
g24
sg25
F100
sg26
S'HAcMd?oFn>FJTQ#LwYGf>Y=$6Yy%2=Ct'
p59
sg28
S'Error at Chromosome_0|math range error'
p60
ssg30
Nsg31
I0
sg32
(lp61
g1
(g34
g3
NtRp62
(dp63
g37
F0.10000000000000001
sg38
(lp64
S'0'
aS'1'
asg40
(lp65
S'0'
aS'1'
aS'0'
aS'0'
aS'1'
aS'1'
aS'1'
aS'0'
aS'0'
aS'0'
aS'1'
aS'1'
aS'0'
aS'1'
aS'1'
aS'0'
aS'1'
aS'0'
aS'1'
aS'0'
aS'0'
aS'0'
aS'1'
aS'0'
aS'0'
aS'0'
aS'1'
aS'0'
aS'0'
aS'0'
asbasg42
g43
sbag1
(g9
g3
NtRp66
(dp67
g12
(dp68
g14
Nsg15
F100
sg16
F100
sg17
(lp69
F0.76159415595576485
aF0.56626997596147965
aF4.052356840206249e+72
aF23586.905276244262
aI0
aF29935.070865949761
aF1.6866545477355923
aF4.052356840206249e+72
aF1.1769263341851e+17
aI0
aF23586.905276244262
aI0
aI20
aI0
aI0
aI0
aI0
aI0
aF1
aI0
aI0
aI0
aI0
aI0
aI0
aI0
aI0
aI0
aI0
aI0
aI0
aI0
aI0
aI0
aI0
aI0
aI0
aI0
aI0
aI0
aI0
aI0
aI0
aI0
aI0
aI0
aI0
aI0
aI0
aI0
aI0
aI0
aI0
aI0
aI0
aI0
aI0
aI0
aI0
aI0
aI0
aI0
aI0
aI0
aI0
aI0
aI0
aI0
aI0
aI0
aI0
aI0
aI0
aI0
aI0
aI0
aI0
aI0
aI0
aI0
aI0
aI0
aI0
aI0
aI0
aI0
aI0
aI0
aI0
aI0
aI0
aI0
aI0
aI0
aI0
aI0
aI0
aI0
aI0
aI0
aI0
aI0
aI0
aI0
aI0
aI0
aI0
aI0
aI0
aI0
aI0
aI0
aI0
aI0
aI0
aI0
aI0
aI0
aI0
aI0
aI0
aI0
aI0
aI0
aI0
aI0
aI0
aI0
aI0
aI0
aI0
aI0
aI0
aI0
aI0
aI0
aI0
aI0
aI0
aI0
aI0
aI0
aI0
aI0
aI0
aI0
aI0
aI0
aI0
aI0
aI0
aI0
aI0
aI0
aI0
aI0
aI0
aI0
aI0
aI0
aI0
aI0
aI0
aI0
aI0
aI0
aI0
aI0
aI0
aI0
aI0
aI0
aI0
aI0
aI0
aI0
aI0
aI0
aI0
aI0
aI0
aI0
aI0
aI0
aI0
aI0
aI0
aI0
aI0
aI0
aI0
aI0
aI0
aI0
aI0
aI0
aI0
aI0
aI0
aI0
asg19
F0
sg20
I01
sg21
g22
sg23
g24
sg25
F100
sg26
S'f$JUT78mlp?A<cbgA&z#Mm<ckCgJnDPq'
p70
sg28
S'Error at Chromosome_0|math range error'
p71
ssg30
Nsg31
I0
sg32
(lp72
g1
(g34
g3
NtRp73
(dp74
g37
F0.10000000000000001
sg38
(lp75
S'0'
aS'1'
asg40
(lp76
S'1'
aS'0'
aS'1'
aS'0'
aS'0'
aS'1'
aS'1'
aS'1'
aS'1'
aS'1'
aS'0'
aS'0'
aS'1'
aS'0'
aS'0'
aS'0'
aS'1'
aS'0'
aS'1'
aS'1'
aS'1'
aS'1'
aS'0'
aS'0'
aS'0'
aS'0'
aS'0'
aS'1'
aS'0'
aS'0'
asbasg42
g43
sbag1
(g9
g3
NtRp77
(dp78
g12
(dp79
g14
Nsg15
F100
sg16
F100
sg17
(lp80
F1.4233589678797365
aF1.4278513905261359
aI0
aI0
aI0
aF1.5430806348152437
aF223623759.13415691
aF135.35183752802931
aF1.4461691689749878
aI10
aF11022.232920103323
aF4051.5420254925939
aI10
aI0
aI10
aF2.592352764293536e+21
aF5.8163792453876901
aF1
aI0
aI0
aF11043.232920103323
aF4.052356840206249e+72
aF1.5430806348152437
aI0
aI0
aI0
aI0
aF1
aI0
aI0
aI0
aF1.5430806348152437
aF1
aI0
aI0
aI0
aI0
aI0
aI0
aI0
aI0
aI0
aI0
aI0
aI0
aI0
aI0
aI0
aI0
aI0
aI0
aI0
aI0
aI0
aI0
aI0
aI0
aI0
aI0
aI0
aI0
aI0
aI0
aI0
aI0
aI0
aI0
aI0
aI0
aI0
aI0
aI0
aI0
aI0
aI0
aI0
aI0
aI0
aI0
aI0
aI0
aI0
aI0
aI0
aI0
aI0
aI0
aI0
aI0
aI0
aI0
aI0
aI0
aI0
aI0
aI0
aI0
aI0
aI0
aI0
aI0
aI0
aI0
aI0
aI0
aI0
aI0
aI0
aI0
aI0
aI0
aI0
aI0
aI0
aI0
aI0
aI0
aI0
aI0
aI0
aI0
aI0
aI0
aI0
aI0
aI0
aI0
aI0
aI0
aI0
aI0
aI0
aI0
aI0
aI0
aI0
aI0
aI0
aI0
aI0
aI0
aI0
aI0
aI0
aI0
aI0
aI0
aI0
aI0
aI0
aI0
aI0
aI0
aI0
aI0
aI0
aI0
aI0
aI0
aI0
aI0
aI0
aI0
aI0
aI0
aI0
aI0
aI0
aI0
aI0
aI0
aI0
aI0
aI0
aI0
aI0
aI0
aI0
aI0
aI0
aI0
aI0
aI0
aI0
aI0
aI0
aI0
aI0
aI0
aI0
aI0
aI0
aI0
aI0
aI0
aI0
aI0
aI0
aI0
aI0
asg19
F0
sg20
I01
sg21
g22
sg23
g24
sg25
F100
sg26
S'@Fp%M@G6aZOm93CjnvP@WdTU3&#bLbE?'
p81
sg28
S'Error at Chromosome_0|math range error'
p82
ssg30
Nsg31
I0
sg32
(lp83
g1
(g34
g3
NtRp84
(dp85
g37
F0.10000000000000001
sg38
(lp86
S'0'
aS'1'
asg40
(lp87
S'1'
aS'0'
aS'0'
aS'1'
aS'0'
aS'0'
aS'0'
aS'0'
aS'1'
aS'1'
aS'1'
aS'0'
aS'1'
aS'0'
aS'1'
aS'1'
aS'0'
aS'0'
aS'0'
aS'0'
aS'1'
aS'0'
aS'1'
aS'0'
aS'1'
aS'0'
aS'0'
aS'1'
aS'0'
aS'0'
asbasg42
g43
sbag1
(g9
g3
NtRp88
(dp89
g12
(dp90
g14
Nsg15
F100
sg16
F100
sg17
(lp91
F29957.070865949761
aF58.403570854334774
aF167.87857252384407
aF5.8163792453876901
aI0
aF57.761594155013761
aF-0.4875051820324704
aF0
aF1
aF1
aI0
aF0.61839082841298065
aF11023.232920103323
aF1
aF1.5430806348152437
aI0
aF0
aF0
aF0
aI0
aI0
aI0
aI0
aI0
aI0
aI0
aI0
aI0
aI0
aI0
aI0
aI0
aI0
aI0
aI0
aI0
aI0
aI0
aI0
aI0
aI0
aI0
aI0
aI0
aI0
aI0
aI0
aI0
aI0
aI0
aI0
aI0
aI0
aI0
aI0
aI0
aI0
aI0
aI0
aI0
aI0
aI0
aI0
aI0
aI0
aI0
aI0
aI0
aI0
aI0
aI0
aI0
aI0
aI0
aI0
aI0
aI0
aI0
aI0
aI0
aI0
aI0
aI0
aI0
aI0
aI0
aI0
aI0
aI0
aI0
aI0
aI0
aI0
aI0
aI0
aI0
aI0
aI0
aI0
aI0
aI0
aI0
aI0
aI0
aI0
aI0
aI0
aI0
aI0
aI0
aI0
aI0
aI0
aI0
aI0
aI0
aI0
aI0
aI0
aI0
aI0
aI0
aI0
aI0
aI0
aI0
aI0
aI0
aI0
aI0
aI0
aI0
aI0
aI0
aI0
aI0
aI0
aI0
aI0
aI0
aI0
aI0
aI0
aI0
aI0
aI0
aI0
aI0
aI0
aI0
aI0
aI0
aI0
aI0
aI0
aI0
aI0
aI0
aI0
aI0
aI0
aI0
aI0
aI0
aI0
aI0
aI0
aI0
aI0
aI0
aI0
aI0
aI0
aI0
aI0
aI0
aI0
aI0
aI0
aI0
aI0
aI0
aI0
aI0
aI0
aI0
aI0
aI0
aI0
aI0
aI0
aI0
aI0
aI0
aI0
aI0
aI0
aI0
aI0
aI0
asg19
F0
sg20
I01
sg21
g22
sg23
g24
sg25
F100
sg26
S'RivP$X@=jl4jeKMOFOdU$xX3GA=a@nss'
p92
sg28
S'Error at Chromosome_0|math range error'
p93
ssg30
Nsg31
I0
sg32
(lp94
g1
(g34
g3
NtRp95
(dp96
g37
F0.10000000000000001
sg38
(lp97
S'0'
aS'1'
asg40
(lp98
S'1'
aS'0'
aS'1'
aS'0'
aS'1'
aS'0'
aS'1'
aS'0'
aS'1'
aS'0'
aS'1'
aS'0'
aS'1'
aS'1'
aS'0'
aS'1'
aS'1'
aS'1'
aS'0'
aS'1'
aS'0'
aS'1'
aS'1'
aS'1'
aS'1'
aS'0'
aS'0'
aS'0'
aS'0'
aS'0'
asbasg42
g43
sbag1
(g9
g3
NtRp99
(dp100
g12
(dp101
g14
Nsg15
F100
sg16
F100
sg17
(lp102
F4.5837545016519528
aF1.3945928913020533
aF4.0523505332246376e+72
aF10.999999999442107
aF4.052356840206249e+72
aF10
aF8.7615941559557644
aF10.761594155578322
aI10
aI0
aF2.0088970726893107e+87
aF4.052356840206249e+72
aI10
aF1
aI0
aI10
aI0
aF2.4463520074491623
aF1
aI0
aI0
aI0
aI0
aI0
aI0
aI0
aI0
aI0
aI0
aI0
aI0
aI0
aI0
aI0
aI0
aI0
aI0
aI0
aI0
aI0
aI0
aI0
aI0
aI0
aI0
aI0
aI0
aI0
aI0
aI0
aI0
aI0
aI0
aI0
aI0
aI0
aI0
aI0
aI0
aI0
aI0
aI0
aI0
aI0
aI0
aI0
aI0
aI0
aI0
aI0
aI0
aI0
aI0
aI0
aI0
aI0
aI0
aI0
aI0
aI0
aI0
aI0
aI0
aI0
aI0
aI0
aI0
aI0
aI0
aI0
aI0
aI0
aI0
aI0
aI0
aI0
aI0
aI0
aI0
aI0
aI0
aI0
aI0
aI0
aI0
aI0
aI0
aI0
aI0
aI0
aI0
aI0
aI0
aI0
aI0
aI0
aI0
aI0
aI0
aI0
aI0
aI0
aI0
aI0
aI0
aI0
aI0
aI0
aI0
aI0
aI0
aI0
aI0
aI0
aI0
aI0
aI0
aI0
aI0
aI0
aI0
aI0
aI0
aI0
aI0
aI0
aI0
aI0
aI0
aI0
aI0
aI0
aI0
aI0
aI0
aI0
aI0
aI0
aI0
aI0
aI0
aI0
aI0
aI0
aI0
aI0
aI0
aI0
aI0
aI0
aI0
aI0
aI0
aI0
aI0
aI0
aI0
aI0
aI0
aI0
aI0
aI0
aI0
aI0
aI0
aI0
aI0
aI0
aI0
aI0
aI0
aI0
aI0
aI0
aI0
aI0
aI0
aI0
aI0
aI0
asg19
F0
sg20
I01
sg21
g22
sg23
g24
sg25
F100
sg26
S'945OyzqIl#E3VBIE63Ko#Rnlz$ZPKg32'
p103
sg28
S'Error at Chromosome_0|math range error'
p104
ssg30
Nsg31
I0
sg32
(lp105
g1
(g34
g3
NtRp106
(dp107
g37
F0.10000000000000001
sg38
(lp108
S'0'
aS'1'
asg40
(lp109
S'1'
aS'1'
aS'0'
aS'1'
aS'0'
aS'0'
aS'1'
aS'0'
aS'1'
aS'1'
aS'1'
aS'1'
aS'1'
aS'0'
aS'0'
aS'0'
aS'0'
aS'1'
aS'0'
aS'0'
aS'1'
aS'0'
aS'0'
aS'0'
aS'1'
aS'0'
aS'0'
aS'1'
aS'0'
aS'0'
asbasg42
g43
sbag1
(g9
g3
NtRp110
(dp111
g12
(dp112
g14
Nsg15
F100
sg16
F100
sg17
(lp113
F0.76159415564750221
aF1
aF51
aF0.54308063481524371
aI-5
aF10.999999999442107
aF2.4050625166356983
aF1.9782433465861597
aF5343237290762.2314
aF1
aF10.9851094717012
aF20.845783219218468
aI10
aF2.4463520074491623
aF1.5430806348152437
aI0
aF21.543080634815244
aF1
aF1
aI0
aI0
aI0
aI0
aI0
aI0
aI0
aI0
aI0
aI0
aI0
aI0
aI0
aI0
aI0
aI0
aI0
aI0
aI0
aI0
aI0
aI0
aI0
aI0
aI0
aI0
aI0
aI0
aI0
aI0
aI0
aI0
aI0
aI0
aI0
aI0
aI0
aI0
aI0
aI0
aI0
aI0
aI0
aI0
aI0
aI0
aI0
aI0
aI0
aI0
aI0
aI0
aI0
aI0
aI0
aI0
aI0
aI0
aI0
aI0
aI0
aI0
aI0
aI0
aI0
aI0
aI0
aI0
aI0
aI0
aI0
aI0
aI0
aI0
aI0
aI0
aI0
aI0
aI0
aI0
aI0
aI0
aI0
aI0
aI0
aI0
aI0
aI0
aI0
aI0
aI0
aI0
aI0
aI0
aI0
aI0
aI0
aI0
aI0
aI0
aI0
aI0
aI0
aI0
aI0
aI0
aI0
aI0
aI0
aI0
aI0
aI0
aI0
aI0
aI0
aI0
aI0
aI0
aI0
aI0
aI0
aI0
aI0
aI0
aI0
aI0
aI0
aI0
aI0
aI0
aI0
aI0
aI0
aI0
aI0
aI0
aI0
aI0
aI0
aI0
aI0
aI0
aI0
aI0
aI0
aI0
aI0
aI0
aI0
aI0
aI0
aI0
aI0
aI0
aI0
aI0
aI0
aI0
aI0
aI0
aI0
aI0
aI0
aI0
aI0
aI0
aI0
aI0
aI0
aI0
aI0
aI0
aI0
aI0
aI0
aI0
aI0
aI0
aI0
aI0
aI0
asg19
F0
sg20
I01
sg21
g22
sg23
g24
sg25
F100
sg26
S'r7BJcdb6=w?ANl3?Km%SoQV3pwnvvYsc'
p114
sg28
S'Error at Chromosome_0|math range error'
p115
ssg30
Nsg31
I0
sg32
(lp116
g1
(g34
g3
NtRp117
(dp118
g37
F0.10000000000000001
sg38
(lp119
S'0'
aS'1'
asg40
(lp120
S'0'
aS'1'
aS'0'
aS'1'
aS'0'
aS'1'
aS'1'
aS'0'
aS'1'
aS'1'
aS'1'
aS'0'
aS'0'
aS'0'
aS'0'
aS'1'
aS'0'
aS'1'
aS'1'
aS'1'
aS'1'
aS'0'
aS'0'
aS'0'
aS'0'
aS'1'
aS'0'
aS'0'
aS'0'
aS'0'
asbasg42
g43
sbag1
(g9
g3
NtRp121
(dp122
g12
(dp123
g14
Nsg15
F100
sg16
F100
sg17
(lp124
F0.76159415587668611
aI56
aF-0.96117142875482642
aI0
aF1.5430806348152437
aF4.0737411371651495e+42
aF369403793898559.19
aF242582597.70489514
aF51540.722096349724
aI0
aF1795947790.5189676
aF223623761.13415691
aF167.87857252384407
aF1.5430806348152437
aF1
aF0
aF4.052356840206249e+72
aI0
aI0
aI0
aI0
aI0
aI0
aI0
aI0
aI0
aI0
aI0
aI0
aI0
aI0
aI0
aI0
aI0
aI0
aI0
aI0
aI0
aI0
aI0
aI0
aI0
aI0
aI0
aI0
aI0
aI0
aI0
aI0
aI0
aI0
aI0
aI0
aI0
aI0
aI0
aI0
aI0
aI0
aI0
aI0
aI0
aI0
aI0
aI0
aI0
aI0
aI0
aI0
aI0
aI0
aI0
aI0
aI0
aI0
aI0
aI0
aI0
aI0
aI0
aI0
aI0
aI0
aI0
aI0
aI0
aI0
aI0
aI0
aI0
aI0
aI0
aI0
aI0
aI0
aI0
aI0
aI0
aI0
aI0
aI0
aI0
aI0
aI0
aI0
aI0
aI0
aI0
aI0
aI0
aI0
aI0
aI0
aI0
aI0
aI0
aI0
aI0
aI0
aI0
aI0
aI0
aI0
aI0
aI0
aI0
aI0
aI0
aI0
aI0
aI0
aI0
aI0
aI0
aI0
aI0
aI0
aI0
aI0
aI0
aI0
aI0
aI0
aI0
aI0
aI0
aI0
aI0
aI0
aI0
aI0
aI0
aI0
aI0
aI0
aI0
aI0
aI0
aI0
aI0
aI0
aI0
aI0
aI0
aI0
aI0
aI0
aI0
aI0
aI0
aI0
aI0
aI0
aI0
aI0
aI0
aI0
aI0
aI0
aI0
aI0
aI0
aI0
aI0
aI0
aI0
aI0
aI0
aI0
aI0
aI0
aI0
aI0
aI0
aI0
aI0
aI0
aI0
aI0
aI0
asg19
F0
sg20
I01
sg21
g22
sg23
g24
sg25
F100
sg26
S'DI87NWxUt=rhX>6gDdAKqBCZ3x>wwYyo'
p125
sg28
S'Error at Chromosome_0|math range error'
p126
ssg30
Nsg31
I0
sg32
(lp127
g1
(g34
g3
NtRp128
(dp129
g37
F0.10000000000000001
sg38
(lp130
S'0'
aS'1'
asg40
(lp131
S'0'
aS'0'
aS'0'
aS'0'
aS'1'
aS'1'
aS'0'
aS'1'
aS'0'
aS'0'
aS'1'
aS'1'
aS'1'
aS'0'
aS'1'
aS'1'
aS'1'
aS'1'
aS'0'
aS'0'
aS'1'
aS'1'
aS'1'
aS'0'
aS'1'
aS'0'
aS'0'
aS'1'
aS'0'
aS'0'
asbasg42
g43
sbag1
(g9
g3
NtRp132
(dp133
g12
(dp134
g14
Nsg15
F100
sg16
F100
sg17
(lp135
F29957.070865949761
aF0
aI0
aI0
aF1.5430806348152437
aF11
aF4.052356840206249e+72
aF4.052356840206249e+72
aF1
aI0
aF2.3989066636496511e+51
aF1.4193043282740825
aF4.052356840206249e+72
aI0
aI0
aF4.052356840206249e+72
aI40
aF11023.232920103323
aF1.5430806348152437
aF1.5430806348152437
aI0
aI0
aI0
aI0
aI0
aI0
aI0
aI0
aI0
aI0
aI0
aI0
aI0
aI0
aI0
aI0
aI0
aI0
aI0
aI0
aI0
aI0
aI0
aI0
aI0
aI0
aI0
aI0
aI0
aI0
aI0
aI0
aI0
aI0
aI0
aI0
aI0
aI0
aI0
aI0
aI0
aI0
aI0
aI0
aI0
aI0
aI0
aI0
aI0
aI0
aI0
aI0
aI0
aI0
aI0
aI0
aI0
aI0
aI0
aI0
aI0
aI0
aI0
aI0
aI0
aI0
aI0
aI0
aI0
aI0
aI0
aI0
aI0
aI0
aI0
aI0
aI0
aI0
aI0
aI0
aI0
aI0
aI0
aI0
aI0
aI0
aI0
aI0
aI0
aI0
aI0
aI0
aI0
aI0
aI0
aI0
aI0
aI0
aI0
aI0
aI0
aI0
aI0
aI0
aI0
aI0
aI0
aI0
aI0
aI0
aI0
aI0
aI0
aI0
aI0
aI0
aI0
aI0
aI0
aI0
aI0
aI0
aI0
aI0
aI0
aI0
aI0
aI0
aI0
aI0
aI0
aI0
aI0
aI0
aI0
aI0
aI0
aI0
aI0
aI0
aI0
aI0
aI0
aI0
aI0
aI0
aI0
aI0
aI0
aI0
aI0
aI0
aI0
aI0
aI0
aI0
aI0
aI0
aI0
aI0
aI0
aI0
aI0
aI0
aI0
aI0
aI0
aI0
aI0
aI0
aI0
aI0
aI0
aI0
aI0
aI0
aI0
aI0
aI0
aI0
asg19
F0
sg20
I01
sg21
g22
sg23
g24
sg25
F100
sg26
S'DsA@hz#28J<dJBzxZdwFpZy7S%vN<=>W'
p136
sg28
S'Error at Chromosome_0|math range error'
p137
ssg30
Nsg31
I0
sg32
(lp138
g1
(g34
g3
NtRp139
(dp140
g37
F0.10000000000000001
sg38
(lp141
S'0'
aS'1'
asg40
(lp142
S'1'
aS'1'
aS'0'
aS'0'
aS'1'
aS'1'
aS'1'
aS'1'
aS'1'
aS'0'
aS'0'
aS'1'
aS'1'
aS'1'
aS'0'
aS'0'
aS'1'
aS'0'
aS'1'
aS'0'
aS'1'
aS'0'
aS'1'
aS'0'
aS'1'
aS'1'
aS'0'
aS'0'
aS'0'
aS'0'
asbasg42
g43
sbag1
(g9
g3
NtRp143
(dp144
g12
(dp145
g14
Nsg15
F100
sg16
F100
sg17
(lp146
I908
aF1.1769263341851e+17
aI-3
aI64
aF1
aF30047.070865949761
aF23865.28999964043
aF0.91263657596321157
aF1
aI0
aF29937.070865949761
aF2.4463520074491623
aF0.91263657596321157
aI0
aI0
aF8.9259099329153967e+76
aI0
aI0
aI0
aI0
aF1
aI0
aI0
aI0
aI0
aI0
aI0
aI0
aI0
aI0
aI0
aI0
aI0
aI0
aI0
aI0
aI0
aI0
aI0
aI0
aI0
aI0
aI0
aI0
aI0
aI0
aI0
aI0
aI0
aI0
aI0
aI0
aI0
aI0
aI0
aI0
aI0
aI0
aI0
aI0
aI0
aI0
aI0
aI0
aI0
aI0
aI0
aI0
aI0
aI0
aI0
aI0
aI0
aI0
aI0
aI0
aI0
aI0
aI0
aI0
aI0
aI0
aI0
aI0
aI0
aI0
aI0
aI0
aI0
aI0
aI0
aI0
aI0
aI0
aI0
aI0
aI0
aI0
aI0
aI0
aI0
aI0
aI0
aI0
aI0
aI0
aI0
aI0
aI0
aI0
aI0
aI0
aI0
aI0
aI0
aI0
aI0
aI0
aI0
aI0
aI0
aI0
aI0
aI0
aI0
aI0
aI0
aI0
aI0
aI0
aI0
aI0
aI0
aI0
aI0
aI0
aI0
aI0
aI0
aI0
aI0
aI0
aI0
aI0
aI0
aI0
aI0
aI0
aI0
aI0
aI0
aI0
aI0
aI0
aI0
aI0
aI0
aI0
aI0
aI0
aI0
aI0
aI0
aI0
aI0
aI0
aI0
aI0
aI0
aI0
aI0
aI0
aI0
aI0
aI0
aI0
aI0
aI0
aI0
aI0
aI0
aI0
aI0
aI0
aI0
aI0
aI0
aI0
aI0
aI0
aI0
aI0
aI0
aI0
aI0
aI0
aI0
aI0
aI0
aI0
asg19
F0
sg20
I01
sg21
g22
sg23
g24
sg25
F100
sg26
S's65HIRZNrg>JK=L3QmtWZP5eeugVZi2u'
p147
sg28
S'Error at Chromosome_0|math range error'
p148
ssg30
Nsg31
I0
sg32
(lp149
g1
(g34
g3
NtRp150
(dp151
g37
F0.10000000000000001
sg38
(lp152
S'0'
aS'1'
asg40
(lp153
S'0'
aS'1'
aS'1'
aS'1'
aS'1'
aS'1'
aS'1'
aS'1'
aS'0'
aS'0'
aS'1'
aS'1'
aS'0'
aS'0'
aS'1'
aS'1'
aS'0'
aS'0'
aS'0'
aS'0'
aS'1'
aS'0'
aS'1'
aS'0'
aS'1'
aS'1'
aS'0'
aS'0'
aS'0'
aS'0'
asbasg42
g43
sbag1
(g9
g3
NtRp154
(dp155
g12
(dp156
g14
Nsg15
F100
sg16
F100
sg17
(lp157
F29936.070865949761
aF29983.07084924807
aF2.7615941555783223
aF26.446352007449164
aI20
aI98
aI-31
aF0.999999969540041
aF0
aI0
aF46779.709350461126
aF5.8163792453876901
aF0
aI0
aI0
aI0
aF2.4463520074491623
aI0
aI0
aI0
aI0
aI0
aI0
aI0
aI0
aI0
aI0
aI0
aI0
aI0
aI0
aI0
aI0
aI0
aI0
aI0
aI0
aI0
aI0
aI0
aI0
aI0
aI0
aI0
aI0
aI0
aI0
aI0
aI0
aI0
aI0
aI0
aI0
aI0
aI0
aI0
aI0
aI0
aI0
aI0
aI0
aI0
aI0
aI0
aI0
aI0
aI0
aI0
aI0
aI0
aI0
aI0
aI0
aI0
aI0
aI0
aI0
aI0
aI0
aI0
aI0
aI0
aI0
aI0
aI0
aI0
aI0
aI0
aI0
aI0
aI0
aI0
aI0
aI0
aI0
aI0
aI0
aI0
aI0
aI0
aI0
aI0
aI0
aI0
aI0
aI0
aI0
aI0
aI0
aI0
aI0
aI0
aI0
aI0
aI0
aI0
aI0
aI0
aI0
aI0
aI0
aI0
aI0
aI0
aI0
aI0
aI0
aI0
aI0
aI0
aI0
aI0
aI0
aI0
aI0
aI0
aI0
aI0
aI0
aI0
aI0
aI0
aI0
aI0
aI0
aI0
aI0
aI0
aI0
aI0
aI0
aI0
aI0
aI0
aI0
aI0
aI0
aI0
aI0
aI0
aI0
aI0
aI0
aI0
aI0
aI0
aI0
aI0
aI0
aI0
aI0
aI0
aI0
aI0
aI0
aI0
aI0
aI0
aI0
aI0
aI0
aI0
aI0
aI0
aI0
aI0
aI0
aI0
aI0
aI0
aI0
aI0
aI0
aI0
aI0
aI0
aI0
aI0
aI0
aI0
asg19
F0
sg20
I01
sg21
g22
sg23
g24
sg25
F100
sg26
S'nG9ZK$aSl3FI8bTxZCl?MgcFybktwYJQ'
p158
sg28
S'Error at Chromosome_0|math range error'
p159
ssg30
Nsg31
I0
sg32
(lp160
g1
(g34
g3
NtRp161
(dp162
g37
F0.10000000000000001
sg38
(lp163
S'0'
aS'1'
asg40
(lp164
S'1'
aS'0'
aS'0'
aS'0'
aS'1'
aS'1'
aS'1'
aS'0'
aS'1'
aS'0'
aS'0'
aS'1'
aS'0'
aS'0'
aS'1'
aS'0'
aS'1'
aS'1'
aS'0'
aS'0'
aS'1'
aS'1'
aS'1'
aS'1'
aS'1'
aS'1'
aS'0'
aS'0'
aS'0'
aS'0'
asbasg42
g43
sbag1
(g9
g3
NtRp165
(dp166
g12
(dp167
g14
Nsg15
F100
sg16
F100
sg17
(lp168
F-7.8759248938740463
aF-0.35798500900566577
aF0
aI0
aI0
aF-0.20500123046476337
aF1
aI0
aI0
aI0
aF1.4219181848489955
aF1.5429265987128487
aI10
aI40
aI0
aF1.5430806348152437
aI0
aI10
aI0
aI0
aF1.3043045862358962
aI0
aI0
aI0
aI0
aI0
aI0
aI0
aI0
aI0
aI0
aI0
aI0
aI0
aI0
aI0
aI0
aI0
aI0
aI0
aI0
aI0
aI0
aI0
aI0
aI0
aI0
aI0
aI0
aI0
aI0
aI0
aI0
aI0
aI0
aI0
aI0
aI0
aI0
aI0
aI0
aI0
aI0
aI0
aI0
aI0
aI0
aI0
aI0
aI0
aI0
aI0
aI0
aI0
aI0
aI0
aI0
aI0
aI0
aI0
aI0
aI0
aI0
aI0
aI0
aI0
aI0
aI0
aI0
aI0
aI0
aI0
aI0
aI0
aI0
aI0
aI0
aI0
aI0
aI0
aI0
aI0
aI0
aI0
aI0
aI0
aI0
aI0
aI0
aI0
aI0
aI0
aI0
aI0
aI0
aI0
aI0
aI0
aI0
aI0
aI0
aI0
aI0
aI0
aI0
aI0
aI0
aI0
aI0
aI0
aI0
aI0
aI0
aI0
aI0
aI0
aI0
aI0
aI0
aI0
aI0
aI0
aI0
aI0
aI0
aI0
aI0
aI0
aI0
aI0
aI0
aI0
aI0
aI0
aI0
aI0
aI0
aI0
aI0
aI0
aI0
aI0
aI0
aI0
aI0
aI0
aI0
aI0
aI0
aI0
aI0
aI0
aI0
aI0
aI0
aI0
aI0
aI0
aI0
aI0
aI0
aI0
aI0
aI0
aI0
aI0
aI0
aI0
aI0
aI0
aI0
aI0
aI0
aI0
aI0
aI0
aI0
aI0
aI0
aI0
asg19
F0
sg20
I01
sg21
g22
sg23
g24
sg25
F100
sg26
S'k4VcLvK1Ss%xAyMts##J<671WZaIYHrf'
p169
sg28
S'Error at Chromosome_0|math range error'
p170
ssg30
Nsg31
I0
sg32
(lp171
g1
(g34
g3
NtRp172
(dp173
g37
F0.10000000000000001
sg38
(lp174
S'0'
aS'1'
asg40
(lp175
S'1'
aS'1'
aS'0'
aS'0'
aS'0'
aS'1'
aS'0'
aS'1'
aS'1'
aS'0'
aS'0'
aS'1'
aS'0'
aS'0'
aS'1'
aS'1'
aS'0'
aS'0'
aS'1'
aS'0'
aS'1'
aS'0'
aS'1'
aS'1'
aS'1'
aS'0'
aS'1'
aS'1'
aS'0'
aS'0'
asbasg42
g43
sbag1
(g9
g3
NtRp176
(dp177
g12
(dp178
g14
Nsg15
F100
sg16
F100
sg17
(lp179
F0
aF51550.722096349724
aF0.76159415595576485
aI-1
aI0
aF1
aF4073.1258132473058
aI-1
aI0
aI0
aI9
aF4071.9496123363974
aF29937.070865949761
aI0
aI0
aI0
aI0
aF2.4463520074491623
aF1
aI0
aI0
aI0
aI0
aI0
aI0
aI0
aI0
aI0
aI0
aI0
aI0
aI0
aI0
aI0
aI0
aI0
aI0
aI0
aI0
aI0
aI0
aI0
aI0
aI0
aI0
aI0
aI0
aI0
aI0
aI0
aI0
aI0
aI0
aI0
aI0
aI0
aI0
aI0
aI0
aI0
aI0
aI0
aI0
aI0
aI0
aI0
aI0
aI0
aI0
aI0
aI0
aI0
aI0
aI0
aI0
aI0
aI0
aI0
aI0
aI0
aI0
aI0
aI0
aI0
aI0
aI0
aI0
aI0
aI0
aI0
aI0
aI0
aI0
aI0
aI0
aI0
aI0
aI0
aI0
aI0
aI0
aI0
aI0
aI0
aI0
aI0
aI0
aI0
aI0
aI0
aI0
aI0
aI0
aI0
aI0
aI0
aI0
aI0
aI0
aI0
aI0
aI0
aI0
aI0
aI0
aI0
aI0
aI0
aI0
aI0
aI0
aI0
aI0
aI0
aI0
aI0
aI0
aI0
aI0
aI0
aI0
aI0
aI0
aI0
aI0
aI0
aI0
aI0
aI0
aI0
aI0
aI0
aI0
aI0
aI0
aI0
aI0
aI0
aI0
aI0
aI0
aI0
aI0
aI0
aI0
aI0
aI0
aI0
aI0
aI0
aI0
aI0
aI0
aI0
aI0
aI0
aI0
aI0
aI0
aI0
aI0
aI0
aI0
aI0
aI0
aI0
aI0
aI0
aI0
aI0
aI0
aI0
aI0
aI0
aI0
aI0
aI0
aI0
aI0
aI0
asg19
F0
sg20
I01
sg21
g22
sg23
g24
sg25
F100
sg26
S'fTLcB6XNoG7RUu#x=kU=>mSm$tBJ5Z@W'
p180
sg28
S'Error at Chromosome_0|math range error'
p181
ssg30
Nsg31
I0
sg32
(lp182
g1
(g34
g3
NtRp183
(dp184
g37
F0.10000000000000001
sg38
(lp185
S'0'
aS'1'
asg40
(lp186
S'1'
aS'0'
aS'1'
aS'0'
aS'0'
aS'1'
aS'1'
aS'0'
aS'0'
aS'1'
aS'0'
aS'0'
aS'0'
aS'1'
aS'0'
aS'1'
aS'0'
aS'0'
aS'1'
aS'0'
aS'1'
aS'0'
aS'1'
aS'1'
aS'0'
aS'0'
aS'1'
aS'0'
aS'0'
aS'0'
asbasg42
g43
sbag1
(g9
g3
NtRp187
(dp188
g12
(dp189
g14
Nsg15
F100
sg16
F100
sg17
(lp190
F1513150.5133342599
aF46815.709350461126
aF-0.61527289077442759
aF6199.4902698023125
aI0
aF1
aF-1.9611210212111281
aF2.4463520074491623
aF2.4463520074491623
aI0
aI10
aF2347226395.1127801
aF40.697711452251781
aF1.5430806348152437
aI0
aF0
aF15.641917733850502
aI0
aF0
aI0
aI0
aI0
aI0
aI0
aI0
aI0
aI0
aI0
aI0
aI0
aI0
aI0
aI0
aI0
aI0
aI0
aI0
aI0
aI0
aI0
aI0
aI0
aI0
aI0
aI0
aI0
aI0
aI0
aI0
aI0
aI0
aI0
aI0
aI0
aI0
aI0
aI0
aI0
aI0
aI0
aI0
aI0
aI0
aI0
aI0
aI0
aI0
aI0
aI0
aI0
aI0
aI0
aI0
aI0
aI0
aI0
aI0
aI0
aI0
aI0
aI0
aI0
aI0
aI0
aI0
aI0
aI0
aI0
aI0
aI0
aI0
aI0
aI0
aI0
aI0
aI0
aI0
aI0
aI0
aI0
aI0
aI0
aI0
aI0
aI0
aI0
aI0
aI0
aI0
aI0
aI0
aI0
aI0
aI0
aI0
aI0
aI0
aI0
aI0
aI0
aI0
aI0
aI0
aI0
aI0
aI0
aI0
aI0
aI0
aI0
aI0
aI0
aI0
aI0
aI0
aI0
aI0
aI0
aI0
aI0
aI0
aI0
aI0
aI0
aI0
aI0
aI0
aI0
aI0
aI0
aI0
aI0
aI0
aI0
aI0
aI0
aI0
aI0
aI0
aI0
aI0
aI0
aI0
aI0
aI0
aI0
aI0
aI0
aI0
aI0
aI0
aI0
aI0
aI0
aI0
aI0
aI0
aI0
aI0
aI0
aI0
aI0
aI0
aI0
aI0
aI0
aI0
aI0
aI0
aI0
aI0
aI0
aI0
aI0
aI0
aI0
aI0
aI0
aI0
aI0
asg19
F0
sg20
I01
sg21
g22
sg23
g24
sg25
F100
sg26
S'e=e8o?O=DGRAWAuOoaZvlrJ7OD7#yDwV'
p191
sg28
S'Error at Chromosome_0|math range error'
p192
ssg30
Nsg31
I0
sg32
(lp193
g1
(g34
g3
NtRp194
(dp195
g37
F0.10000000000000001
sg38
(lp196
S'0'
aS'1'
asg40
(lp197
S'0'
aS'0'
aS'0'
aS'1'
aS'1'
aS'0'
aS'1'
aS'1'
aS'0'
aS'0'
aS'1'
aS'0'
aS'0'
aS'1'
aS'1'
aS'0'
aS'0'
aS'0'
aS'1'
aS'0'
aS'1'
aS'0'
aS'0'
aS'1'
aS'0'
aS'0'
aS'0'
aS'0'
aS'0'
aS'0'
asbasg42
g43
sbag1
(g9
g3
NtRp198
(dp199
g12
(dp200
g14
Nsg15
F100
sg16
F100
sg17
(lp201
F0.35625016733262493
aF3.6841715773165347
aF0
aF-0.96135307037101481
aF2.592352764293536e+21
aF51
aF-1.9611210212111281
aF1
aF1
aI10
aF0
aF1
aF4.052356840206249e+72
aF1.3043045862358962
aF11013.232920103323
aF4.052356840206249e+72
aF1
aI0
aI0
aI0
aI0
aI0
aI0
aI0
aI0
aI0
aI0
aI0
aI0
aI0
aI0
aI0
aI0
aI0
aI0
aI0
aI0
aI0
aI0
aI0
aI0
aI0
aI0
aI0
aI0
aI0
aI0
aI0
aI0
aI0
aI0
aI0
aI0
aI0
aI0
aI0
aI0
aI0
aI0
aI0
aI0
aI0
aI0
aI0
aI0
aI0
aI0
aI0
aI0
aI0
aI0
aI0
aI0
aI0
aI0
aI0
aI0
aI0
aI0
aI0
aI0
aI0
aI0
aI0
aI0
aI0
aI0
aI0
aI0
aI0
aI0
aI0
aI0
aI0
aI0
aI0
aI0
aI0
aI0
aI0
aI0
aI0
aI0
aI0
aI0
aI0
aI0
aI0
aI0
aI0
aI0
aI0
aI0
aI0
aI0
aI0
aI0
aI0
aI0
aI0
aI0
aI0
aI0
aI0
aI0
aI0
aI0
aI0
aI0
aI0
aI0
aI0
aI0
aI0
aI0
aI0
aI0
aI0
aI0
aI0
aI0
aI0
aI0
aI0
aI0
aI0
aI0
aI0
aI0
aI0
aI0
aI0
aI0
aI0
aI0
aI0
aI0
aI0
aI0
aI0
aI0
aI0
aI0
aI0
aI0
aI0
aI0
aI0
aI0
aI0
aI0
aI0
aI0
aI0
aI0
aI0
aI0
aI0
aI0
aI0
aI0
aI0
aI0
aI0
aI0
aI0
aI0
aI0
aI0
aI0
aI0
aI0
aI0
aI0
aI0
aI0
aI0
aI0
aI0
aI0
asg19
F0
sg20
I01
sg21
g22
sg23
g24
sg25
F100
sg26
S'?45=<4O2AdSkc#vW=ufSzPbunKs2p@>&'
p202
sg28
S'Error at Chromosome_0|math range error'
p203
ssg30
Nsg31
I0
sg32
(lp204
g1
(g34
g3
NtRp205
(dp206
g37
F0.10000000000000001
sg38
(lp207
S'0'
aS'1'
asg40
(lp208
S'1'
aS'0'
aS'1'
aS'0'
aS'0'
aS'1'
aS'0'
aS'1'
aS'0'
aS'1'
aS'1'
aS'0'
aS'0'
aS'1'
aS'1'
aS'1'
aS'0'
aS'1'
aS'0'
aS'1'
aS'1'
aS'0'
aS'0'
aS'0'
aS'1'
aS'1'
aS'0'
aS'0'
aS'0'
aS'0'
asbasg42
g43
sbag1
(g9
g3
NtRp209
(dp210
g12
(dp211
g14
Nsg15
F100
sg16
F100
sg17
(lp212
F-1.2678667357897151
aF-1.7322646184761958
aF1.0114416779960145
aF1
aI0
aF110.99999996954004
aF1.2577193354595834e+30
aF1.093352173304122
aI0
aI0
aF11039.232920103323
aF1.3043045862358962
aF6199.4902698023125
aI0
aI0
aF-3
aF1.3959093421023823
aF370226909.11868507
aI0
aI0
aI0
aI0
aI0
aI0
aI0
aI0
aI0
aI0
aI0
aI0
aI0
aI0
aI0
aI0
aI0
aI0
aI0
aI0
aI0
aI0
aI0
aI0
aI0
aI0
aI0
aI0
aI0
aI0
aI0
aI0
aI0
aI0
aI0
aI0
aI0
aI0
aI0
aI0
aI0
aI0
aI0
aI0
aI0
aI0
aI0
aI0
aI0
aI0
aI0
aI0
aI0
aI0
aI0
aI0
aI0
aI0
aI0
aI0
aI0
aI0
aI0
aI0
aI0
aI0
aI0
aI0
aI0
aI0
aI0
aI0
aI0
aI0
aI0
aI0
aI0
aI0
aI0
aI0
aI0
aI0
aI0
aI0
aI0
aI0
aI0
aI0
aI0
aI0
aI0
aI0
aI0
aI0
aI0
aI0
aI0
aI0
aI0
aI0
aI0
aI0
aI0
aI0
aI0
aI0
aI0
aI0
aI0
aI0
aI0
aI0
aI0
aI0
aI0
aI0
aI0
aI0
aI0
aI0
aI0
aI0
aI0
aI0
aI0
aI0
aI0
aI0
aI0
aI0
aI0
aI0
aI0
aI0
aI0
aI0
aI0
aI0
aI0
aI0
aI0
aI0
aI0
aI0
aI0
aI0
aI0
aI0
aI0
aI0
aI0
aI0
aI0
aI0
aI0
aI0
aI0
aI0
aI0
aI0
aI0
aI0
aI0
aI0
aI0
aI0
aI0
aI0
aI0
aI0
aI0
aI0
aI0
aI0
aI0
aI0
aI0
aI0
aI0
aI0
aI0
aI0
asg19
F0
sg20
I01
sg21
g22
sg23
g24
sg25
F100
sg26
S'po>3kh$x6RYt@XZGI3eLWzfV>N9rbUDy'
p213
sg28
S'Error at Chromosome_0|math range error'
p214
ssg30
Nsg31
I0
sg32
(lp215
g1
(g34
g3
NtRp216
(dp217
g37
F0.10000000000000001
sg38
(lp218
S'0'
aS'1'
asg40
(lp219
S'0'
aS'1'
aS'1'
aS'0'
aS'0'
aS'1'
aS'1'
aS'1'
aS'1'
aS'1'
aS'1'
aS'0'
aS'0'
aS'0'
aS'1'
aS'0'
aS'1'
aS'1'
aS'1'
aS'1'
aS'1'
aS'1'
aS'0'
aS'0'
aS'1'
aS'0'
aS'0'
aS'0'
aS'0'
aS'0'
asbasg42
g43
sbag1
(g9
g3
NtRp220
(dp221
g12
(dp222
g14
Nsg15
F100
sg16
F100
sg17
(lp223
F563352.42544633627
aF46770.327230765637
aF11013.232920103323
aI0
aF1
aF0.88999840201111546
aF21.543080634815244
aF10.722395322462209
aF4.052356840206249e+72
aI0
aF8.2526540372795781e+18
aF1.4461728085856087
aF4.052356840206249e+72
aF1.5430806348152437
aF1
aF2.4463520074491623
aI0
aF1
aI0
aI0
aI0
aI0
aI0
aI0
aI0
aI0
aI0
aI0
aI0
aI0
aI0
aI0
aI0
aI0
aI0
aI0
aI0
aI0
aI0
aI0
aI0
aI0
aI0
aI0
aI0
aI0
aI0
aI0
aI0
aI0
aI0
aI0
aI0
aI0
aI0
aI0
aI0
aI0
aI0
aI0
aI0
aI0
aI0
aI0
aI0
aI0
aI0
aI0
aI0
aI0
aI0
aI0
aI0
aI0
aI0
aI0
aI0
aI0
aI0
aI0
aI0
aI0
aI0
aI0
aI0
aI0
aI0
aI0
aI0
aI0
aI0
aI0
aI0
aI0
aI0
aI0
aI0
aI0
aI0
aI0
aI0
aI0
aI0
aI0
aI0
aI0
aI0
aI0
aI0
aI0
aI0
aI0
aI0
aI0
aI0
aI0
aI0
aI0
aI0
aI0
aI0
aI0
aI0
aI0
aI0
aI0
aI0
aI0
aI0
aI0
aI0
aI0
aI0
aI0
aI0
aI0
aI0
aI0
aI0
aI0
aI0
aI0
aI0
aI0
aI0
aI0
aI0
aI0
aI0
aI0
aI0
aI0
aI0
aI0
aI0
aI0
aI0
aI0
aI0
aI0
aI0
aI0
aI0
aI0
aI0
aI0
aI0
aI0
aI0
aI0
aI0
aI0
aI0
aI0
aI0
aI0
aI0
aI0
aI0
aI0
aI0
aI0
aI0
aI0
aI0
aI0
aI0
aI0
aI0
aI0
aI0
aI0
aI0
aI0
aI0
aI0
aI0
aI0
aI0
aI0
asg19
F0
sg20
I01
sg21
g22
sg23
g24
sg25
F100
sg26
S'hy>TRXAO7FLEPzEhi9sx9WyO%Pv@5>9K'
p224
sg28
S'Error at Chromosome_0|math range error'
p225
ssg30
Nsg31
I0
sg32
(lp226
g1
(g34
g3
NtRp227
(dp228
g37
F0.10000000000000001
sg38
(lp229
S'0'
aS'1'
asg40
(lp230
S'1'
aS'1'
aS'0'
aS'0'
aS'0'
aS'1'
aS'1'
aS'0'
aS'0'
aS'1'
aS'1'
aS'1'
aS'1'
aS'1'
aS'1'
aS'1'
aS'0'
aS'1'
aS'0'
aS'0'
aS'1'
aS'1'
aS'0'
aS'0'
aS'0'
aS'1'
aS'0'
aS'0'
aS'0'
aS'0'
asbasg42
g43
sbag1
(g9
g3
NtRp231
(dp232
g12
(dp233
g14
Nsg15
F100
sg16
F100
sg17
(lp234
F20.761594155955763
aF2.4981636897537891e+74
aF920665043076.36414
aF11
aF1
aF1.1464422615317471e+31
aF30281.568246573173
aI30
aI30
aI0
aI40
aI40
aI20
aI30
aI20
aI10
aI0
aI0
aI0
aI0
aI0
aI0
aI0
aI0
aI0
aI0
aI0
aI0
aI0
aI0
aI0
aI0
aI0
aI0
aI0
aI0
aI0
aI0
aI0
aI0
aI0
aI0
aI0
aI0
aI0
aI0
aI0
aI0
aI0
aI0
aI0
aI0
aI0
aI0
aI0
aI0
aI0
aI0
aI0
aI0
aI0
aI0
aI0
aI0
aI0
aI0
aI0
aI0
aI0
aI0
aI0
aI0
aI0
aI0
aI0
aI0
aI0
aI0
aI0
aI0
aI0
aI0
aI0
aI0
aI0
aI0
aI0
aI0
aI0
aI0
aI0
aI0
aI0
aI0
aI0
aI0
aI0
aI0
aI0
aI0
aI0
aI0
aI0
aI0
aI0
aI0
aI0
aI0
aI0
aI0
aI0
aI0
aI0
aI0
aI0
aI0
aI0
aI0
aI0
aI0
aI0
aI0
aI0
aI0
aI0
aI0
aI0
aI0
aI0
aI0
aI0
aI0
aI0
aI0
aI0
aI0
aI0
aI0
aI0
aI0
aI0
aI0
aI0
aI0
aI0
aI0
aI0
aI0
aI0
aI0
aI0
aI0
aI0
aI0
aI0
aI0
aI0
aI0
aI0
aI0
aI0
aI0
aI0
aI0
aI0
aI0
aI0
aI0
aI0
aI0
aI0
aI0
aI0
aI0
aI0
aI0
aI0
aI0
aI0
aI0
aI0
aI0
aI0
aI0
aI0
aI0
aI0
aI0
aI0
aI0
aI0
aI0
aI0
aI0
aI0
aI0
aI0
aI0
aI0
aI0
asg19
F0
sg20
I01
sg21
g22
sg23
g24
sg25
F100
sg26
S'q4fcb2mfcCLI64ZR$Ej6N$kC9RZ?9>hO'
p235
sg28
S'Error at Chromosome_0|math range error'
p236
ssg30
Nsg31
I0
sg32
(lp237
g1
(g34
g3
NtRp238
(dp239
g37
F0.10000000000000001
sg38
(lp240
S'0'
aS'1'
asg40
(lp241
S'1'
aS'1'
aS'1'
aS'1'
aS'0'
aS'1'
aS'0'
aS'1'
aS'0'
aS'0'
aS'1'
aS'0'
aS'0'
aS'0'
aS'0'
aS'1'
aS'0'
aS'0'
aS'1'
aS'0'
aS'1'
aS'0'
aS'0'
aS'0'
aS'1'
aS'1'
aS'0'
aS'1'
aS'0'
aS'0'
asbasg42
g43
sbag1
(g9
g3
NtRp242
(dp243
g12
(dp244
g14
Nsg15
F100
sg16
F100
sg17
(lp245
F4071.5420254925939
aF4.052356840206249e+72
aF0.47197991560014774
aF242582621.70489514
aI9
aF1360364.0958130625
aF11068.232920103323
aF0.98510947170120056
aF266024120330.89932
aF11031.232920103323
aF4.052356840206249e+72
aF1.4907787698023467e+72
aF1.5430806348152437
aI0
aI0
aI0
aI0
aI0
aI0
aI0
aI0
aI0
aI0
aI0
aI0
aI0
aI0
aI0
aI0
aI0
aI0
aI0
aI0
aI0
aI0
aI0
aI0
aI0
aI0
aI0
aI0
aI0
aI0
aI0
aI0
aI0
aI0
aI0
aI0
aI0
aI0
aI0
aI0
aI0
aI0
aI0
aI0
aI0
aI0
aI0
aI0
aI0
aI0
aI0
aI0
aI0
aI0
aI0
aI0
aI0
aI0
aI0
aI0
aI0
aI0
aI0
aI0
aI0
aI0
aI0
aI0
aI0
aI0
aI0
aI0
aI0
aI0
aI0
aI0
aI0
aI0
aI0
aI0
aI0
aI0
aI0
aI0
aI0
aI0
aI0
aI0
aI0
aI0
aI0
aI0
aI0
aI0
aI0
aI0
aI0
aI0
aI0
aI0
aI0
aI0
aI0
aI0
aI0
aI0
aI0
aI0
aI0
aI0
aI0
aI0
aI0
aI0
aI0
aI0
aI0
aI0
aI0
aI0
aI0
aI0
aI0
aI0
aI0
aI0
aI0
aI0
aI0
aI0
aI0
aI0
aI0
aI0
aI0
aI0
aI0
aI0
aI0
aI0
aI0
aI0
aI0
aI0
aI0
aI0
aI0
aI0
aI0
aI0
aI0
aI0
aI0
aI0
aI0
aI0
aI0
aI0
aI0
aI0
aI0
aI0
aI0
aI0
aI0
aI0
aI0
aI0
aI0
aI0
aI0
aI0
aI0
aI0
aI0
aI0
aI0
aI0
aI0
aI0
aI0
aI0
aI0
aI0
aI0
aI0
aI0
asg19
F0
sg20
I01
sg21
g22
sg23
g24
sg25
F100
sg26
S'DQxXb3@npTXbiHmU1xpXeOs>a1XcQC61'
p246
sg28
S'Error at Chromosome_0|math range error'
p247
ssg30
Nsg31
I0
sg32
(lp248
g1
(g34
g3
NtRp249
(dp250
g37
F0.10000000000000001
sg38
(lp251
S'0'
aS'1'
asg40
(lp252
S'1'
aS'1'
aS'0'
aS'0'
aS'0'
aS'1'
aS'0'
aS'0'
aS'0'
aS'0'
aS'0'
aS'1'
aS'1'
aS'1'
aS'1'
aS'1'
aS'1'
aS'1'
aS'1'
aS'1'
aS'1'
aS'1'
aS'0'
aS'1'
aS'0'
aS'1'
aS'1'
aS'0'
aS'0'
aS'0'
asbasg42
g43
sbag1
(g9
g3
NtRp253
(dp254
g12
(dp255
g14
Nsg15
F100
sg16
F100
sg17
(lp256
F4.052356840206249e+72
aF2.592352764293536e+21
aF1899.7521301791635
aF11013.232920103323
aF1
aF5.8163792453876901
aF1360368.0958130625
aF10.999999988688948
aF1
aI0
aF242582596.70489514
aF15.81637924538769
aF11013.232920103323
aF0.69771145225178133
aI0
aF29937.070865949761
aF11023.232920103323
aI10
aI0
aI0
aI0
aI0
aI0
aI0
aI0
aI0
aI0
aI0
aI0
aI0
aI0
aI0
aI0
aI0
aI0
aI0
aI0
aI0
aI0
aI0
aI0
aI0
aI0
aI0
aI0
aI0
aI0
aI0
aI0
aI0
aI0
aI0
aI0
aI0
aI0
aI0
aI0
aI0
aI0
aI0
aI0
aI0
aI0
aI0
aI0
aI0
aI0
aI0
aI0
aI0
aI0
aI0
aI0
aI0
aI0
aI0
aI0
aI0
aI0
aI0
aI0
aI0
aI0
aI0
aI0
aI0
aI0
aI0
aI0
aI0
aI0
aI0
aI0
aI0
aI0
aI0
aI0
aI0
aI0
aI0
aI0
aI0
aI0
aI0
aI0
aI0
aI0
aI0
aI0
aI0
aI0
aI0
aI0
aI0
aI0
aI0
aI0
aI0
aI0
aI0
aI0
aI0
aI0
aI0
aI0
aI0
aI0
aI0
aI0
aI0
aI0
aI0
aI0
aI0
aI0
aI0
aI0
aI0
aI0
aI0
aI0
aI0
aI0
aI0
aI0
aI0
aI0
aI0
aI0
aI0
aI0
aI0
aI0
aI0
aI0
aI0
aI0
aI0
aI0
aI0
aI0
aI0
aI0
aI0
aI0
aI0
aI0
aI0
aI0
aI0
aI0
aI0
aI0
aI0
aI0
aI0
aI0
aI0
aI0
aI0
aI0
aI0
aI0
aI0
aI0
aI0
aI0
aI0
aI0
aI0
aI0
aI0
aI0
aI0
aI0
aI0
aI0
aI0
aI0
aI0
asg19
F0
sg20
I01
sg21
g22
sg23
g24
sg25
F100
sg26
S'trR313Jocij9NFsmJKWyAXPLvcug>XEo'
p257
sg28
S'Error at Chromosome_0|math range error'
p258
ssg30
Nsg31
I0
sg32
(lp259
g1
(g34
g3
NtRp260
(dp261
g37
F0.10000000000000001
sg38
(lp262
S'0'
aS'1'
asg40
(lp263
S'1'
aS'0'
aS'0'
aS'0'
aS'0'
aS'1'
aS'0'
aS'0'
aS'1'
aS'0'
aS'1'
aS'1'
aS'1'
aS'0'
aS'1'
aS'0'
aS'0'
aS'0'
aS'0'
aS'0'
aS'1'
aS'1'
aS'1'
aS'1'
aS'1'
aS'1'
aS'0'
aS'0'
aS'0'
aS'0'
asbasg42
g43
sbag1
(g9
g3
NtRp264
(dp265
g12
(dp266
g14
Nsg15
F100
sg16
F100
sg17
(lp267
F19303.093228372592
aF6.1020164715892042e+38
aF11013.232920103323
aF3.5083679560488157e+20
aI74
aF29932.070865949761
aF4063.5420254925939
aF3.7621956910836314
aF5.7100369490784212e+25
aI0
aF10.999999999442107
aF5.8163792453876901
aI0
aI0
aI0
aF1
aF2.4463520074491623
aF1.5430806348152437
aI0
aI0
aI0
aI0
aF1
aI0
aI0
aI0
aI0
aI0
aI0
aI0
aI0
aI0
aI0
aI0
aI0
aI0
aI0
aI0
aI0
aI0
aI0
aI0
aI0
aI0
aI0
aI0
aI0
aI0
aI0
aI0
aI0
aI0
aI0
aI0
aI0
aI0
aI0
aI0
aI0
aI0
aI0
aI0
aI0
aI0
aI0
aI0
aI0
aI0
aI0
aI0
aI0
aI0
aI0
aI0
aI0
aI0
aI0
aI0
aI0
aI0
aI0
aI0
aI0
aI0
aI0
aI0
aI0
aI0
aI0
aI0
aI0
aI0
aI0
aI0
aI0
aI0
aI0
aI0
aI0
aI0
aI0
aI0
aI0
aI0
aI0
aI0
aI0
aI0
aI0
aI0
aI0
aI0
aI0
aI0
aI0
aI0
aI0
aI0
aI0
aI0
aI0
aI0
aI0
aI0
aI0
aI0
aI0
aI0
aI0
aI0
aI0
aI0
aI0
aI0
aI0
aI0
aI0
aI0
aI0
aI0
aI0
aI0
aI0
aI0
aI0
aI0
aI0
aI0
aI0
aI0
aI0
aI0
aI0
aI0
aI0
aI0
aI0
aI0
aI0
aI0
aI0
aI0
aI0
aI0
aI0
aI0
aI0
aI0
aI0
aI0
aI0
aI0
aI0
aI0
aI0
aI0
aI0
aI0
aI0
aI0
aI0
aI0
aI0
aI0
aI0
aI0
aI0
aI0
aI0
aI0
aI0
aI0
aI0
aI0
aI0
aI0
aI0
aI0
aI0
aI0
asg19
F0
sg20
I01
sg21
g22
sg23
g24
sg25
F100
sg26
S'k1qSzfGf$GrIXbCQG2nt?AU<gcX#pD@l'
p268
sg28
S'Error at Chromosome_0|math range error'
p269
ssg30
Nsg31
I0
sg32
(lp270
g1
(g34
g3
NtRp271
(dp272
g37
F0.10000000000000001
sg38
(lp273
S'0'
aS'1'
asg40
(lp274
S'0'
aS'1'
aS'0'
aS'0'
aS'0'
aS'1'
aS'0'
aS'1'
aS'1'
aS'1'
aS'1'
aS'1'
aS'0'
aS'0'
aS'1'
aS'0'
aS'0'
aS'1'
aS'1'
aS'0'
aS'0'
aS'0'
aS'0'
aS'0'
aS'0'
aS'1'
aS'1'
aS'1'
aS'0'
aS'0'
asbasg42
g43
sbag1
(g9
g3
NtRp275
(dp276
g12
(dp277
g14
Nsg15
F100
sg16
F100
sg17
(lp278
F29936.070865949761
aF49.978232696929922
aF286.87857252384407
aI80
aI60
aF242582637.70489514
aF438460.23239477072
aF72559.457583156414
aI0
aI0
aI0
aF1.3440585709080678e+43
aI0
aI0
aI0
aI0
aI0
aI0
aI0
aI0
aI0
aI0
aI0
aI0
aI0
aI0
aI0
aI0
aI0
aI0
aI0
aI0
aI0
aI0
aI0
aI0
aI0
aI0
aI0
aI0
aI0
aI0
aI0
aI0
aI0
aI0
aI0
aI0
aI0
aI0
aI0
aI0
aI0
aI0
aI0
aI0
aI0
aI0
aI0
aI0
aI0
aI0
aI0
aI0
aI0
aI0
aI0
aI0
aI0
aI0
aI0
aI0
aI0
aI0
aI0
aI0
aI0
aI0
aI0
aI0
aI0
aI0
aI0
aI0
aI0
aI0
aI0
aI0
aI0
aI0
aI0
aI0
aI0
aI0
aI0
aI0
aI0
aI0
aI0
aI0
aI0
aI0
aI0
aI0
aI0
aI0
aI0
aI0
aI0
aI0
aI0
aI0
aI0
aI0
aI0
aI0
aI0
aI0
aI0
aI0
aI0
aI0
aI0
aI0
aI0
aI0
aI0
aI0
aI0
aI0
aI0
aI0
aI0
aI0
aI0
aI0
aI0
aI0
aI0
aI0
aI0
aI0
aI0
aI0
aI0
aI0
aI0
aI0
aI0
aI0
aI0
aI0
aI0
aI0
aI0
aI0
aI0
aI0
aI0
aI0
aI0
aI0
aI0
aI0
aI0
aI0
aI0
aI0
aI0
aI0
aI0
aI0
aI0
aI0
aI0
aI0
aI0
aI0
aI0
aI0
aI0
aI0
aI0
aI0
aI0
aI0
aI0
aI0
aI0
aI0
aI0
aI0
aI0
aI0
aI0
aI0
aI0
aI0
aI0
aI0
asg19
F0
sg20
I01
sg21
g22
sg23
g24
sg25
F100
sg26
S'wqsj4#rv3W9AigdiQISf3m3@c4KpNbQY'
p279
sg28
S'Error at Chromosome_0|math range error'
p280
ssg30
Nsg31
I0
sg32
(lp281
g1
(g34
g3
NtRp282
(dp283
g37
F0.10000000000000001
sg38
(lp284
S'0'
aS'1'
asg40
(lp285
S'0'
aS'0'
aS'1'
aS'0'
aS'1'
aS'0'
aS'1'
aS'1'
aS'1'
aS'1'
aS'1'
aS'1'
aS'1'
aS'1'
aS'1'
aS'1'
aS'0'
aS'1'
aS'0'
aS'1'
aS'1'
aS'1'
aS'1'
aS'0'
aS'1'
aS'0'
aS'0'
aS'0'
aS'0'
aS'0'
asbasg42
g43
sbag1
(g9
g3
NtRp286
(dp287
g12
(dp288
g14
Nsg15
F100
sg16
F100
sg17
(lp289
F11032.232846967214
aF8.9999999695400383
aF0.54308063481524371
aF1.4279039169996857
aF1
aF1
aF4.052356840206249e+72
aF46779.709350461126
aF11023.232920103323
aI0
aF1
aI0
aI0
aI0
aI0
aI0
aI0
aI0
aI0
aI0
aI0
aI0
aI0
aI0
aI0
aI0
aI0
aI0
aI0
aI0
aI0
aI0
aI0
aI0
aI0
aI0
aI0
aI0
aI0
aI0
aI0
aI0
aI0
aI0
aI0
aI0
aI0
aI0
aI0
aI0
aI0
aI0
aI0
aI0
aI0
aI0
aI0
aI0
aI0
aI0
aI0
aI0
aI0
aI0
aI0
aI0
aI0
aI0
aI0
aI0
aI0
aI0
aI0
aI0
aI0
aI0
aI0
aI0
aI0
aI0
aI0
aI0
aI0
aI0
aI0
aI0
aI0
aI0
aI0
aI0
aI0
aI0
aI0
aI0
aI0
aI0
aI0
aI0
aI0
aI0
aI0
aI0
aI0
aI0
aI0
aI0
aI0
aI0
aI0
aI0
aI0
aI0
aI0
aI0
aI0
aI0
aI0
aI0
aI0
aI0
aI0
aI0
aI0
aI0
aI0
aI0
aI0
aI0
aI0
aI0
aI0
aI0
aI0
aI0
aI0
aI0
aI0
aI0
aI0
aI0
aI0
aI0
aI0
aI0
aI0
aI0
aI0
aI0
aI0
aI0
aI0
aI0
aI0
aI0
aI0
aI0
aI0
aI0
aI0
aI0
aI0
aI0
aI0
aI0
aI0
aI0
aI0
aI0
aI0
aI0
aI0
aI0
aI0
aI0
aI0
aI0
aI0
aI0
aI0
aI0
aI0
aI0
aI0
aI0
aI0
aI0
aI0
aI0
aI0
aI0
aI0
aI0
aI0
aI0
aI0
aI0
aI0
aI0
aI0
aI0
asg19
F0
sg20
I01
sg21
g22
sg23
g24
sg25
F100
sg26
S'Yp6$HJLzoU5&1AEA1<qRYRNq44c5fIHH'
p290
sg28
S'Error at Chromosome_0|math range error'
p291
ssg30
Nsg31
I0
sg32
(lp292
g1
(g34
g3
NtRp293
(dp294
g37
F0.10000000000000001
sg38
(lp295
S'0'
aS'1'
asg40
(lp296
S'0'
aS'0'
aS'0'
aS'1'
aS'0'
aS'0'
aS'0'
aS'1'
aS'1'
aS'0'
aS'1'
aS'1'
aS'1'
aS'1'
aS'0'
aS'0'
aS'1'
aS'0'
aS'1'
aS'1'
aS'0'
aS'0'
aS'0'
aS'1'
aS'1'
aS'0'
aS'0'
aS'1'
aS'0'
aS'0'
asbasg42
g43
sbag1
(g9
g3
NtRp297
(dp298
g12
(dp299
g14
Nsg15
F100
sg16
F100
sg17
(lp300
F29937.07084924807
aF17209.29334657115
aF2.4463519804752147
aF1.4461728084711574
aF0
aF889.04233478956291
aF1.5893173163214661e+21
aF5.8163792453876901
aF167.87857203186906
aF0
aI0
aF0
aI0
aI0
aI0
aI0
aI0
aI0
aI0
aI0
aI0
aI0
aI0
aI0
aI0
aI0
aI0
aI0
aI0
aI0
aI0
aI0
aI0
aI0
aI0
aI0
aI0
aI0
aI0
aI0
aI0
aI0
aI0
aI0
aI0
aI0
aI0
aI0
aI0
aI0
aI0
aI0
aI0
aI0
aI0
aI0
aI0
aI0
aI0
aI0
aI0
aI0
aI0
aI0
aI0
aI0
aI0
aI0
aI0
aI0
aI0
aI0
aI0
aI0
aI0
aI0
aI0
aI0
aI0
aI0
aI0
aI0
aI0
aI0
aI0
aI0
aI0
aI0
aI0
aI0
aI0
aI0
aI0
aI0
aI0
aI0
aI0
aI0
aI0
aI0
aI0
aI0
aI0
aI0
aI0
aI0
aI0
aI0
aI0
aI0
aI0
aI0
aI0
aI0
aI0
aI0
aI0
aI0
aI0
aI0
aI0
aI0
aI0
aI0
aI0
aI0
aI0
aI0
aI0
aI0
aI0
aI0
aI0
aI0
aI0
aI0
aI0
aI0
aI0
aI0
aI0
aI0
aI0
aI0
aI0
aI0
aI0
aI0
aI0
aI0
aI0
aI0
aI0
aI0
aI0
aI0
aI0
aI0
aI0
aI0
aI0
aI0
aI0
aI0
aI0
aI0
aI0
aI0
aI0
aI0
aI0
aI0
aI0
aI0
aI0
aI0
aI0
aI0
aI0
aI0
aI0
aI0
aI0
aI0
aI0
aI0
aI0
aI0
aI0
aI0
aI0
aI0
aI0
aI0
aI0
aI0
aI0
aI0
aI0
aI0
asg19
F0
sg20
I01
sg21
g22
sg23
g24
sg25
F100
sg26
S'HBwptP$%DcI9<LP<4vvfcrQXf=WOSX#Q'
p301
sg28
S'Error at Chromosome_0|math range error'
p302
ssg30
Nsg31
I0
sg32
(lp303
g1
(g34
g3
NtRp304
(dp305
g37
F0.10000000000000001
sg38
(lp306
S'0'
aS'1'
asg40
(lp307
S'0'
aS'1'
aS'0'
aS'1'
aS'0'
aS'1'
aS'0'
aS'1'
aS'0'
aS'1'
aS'0'
aS'1'
aS'0'
aS'1'
aS'0'
aS'1'
aS'1'
aS'0'
aS'1'
aS'0'
aS'0'
aS'0'
aS'0'
aS'0'
aS'1'
aS'1'
aS'0'
aS'1'
aS'0'
aS'0'
asbasg42
g43
sbag1
(g9
g3
NtRp308
(dp309
g12
(dp310
g14
Nsg15
F100
sg16
F100
sg17
(lp311
F38.000000000000071
aF11.543080634169712
aF-1.7615941559557649
aF-0.23840584404423515
aI0
aF1.423149992994631
aF1.2132685647551773
aF0.60291313584733897
aF0
aF1.5430806348152437
aF1.4173109680952909
aF0.76159415557832233
aF41
aF51540.722096349724
aI0
aI0
aF10.999982258786538
aF29937.070865949761
aI0
aI0
aI0
aI20
aI0
aI0
aI0
aI0
aI0
aI0
aI0
aI0
aI0
aI0
aI0
aI0
aI0
aI0
aI0
aI0
aI0
aI0
aI0
aI0
aI0
aI0
aI0
aI0
aI0
aI0
aI0
aI0
aI0
aI0
aI0
aI0
aI0
aI0
aI0
aI0
aI0
aI0
aI0
aI0
aI0
aI0
aI0
aI0
aI0
aI0
aI0
aI0
aI0
aI0
aI0
aI0
aI0
aI0
aI0
aI0
aI0
aI0
aI0
aI0
aI0
aI0
aI0
aI0
aI0
aI0
aI0
aI0
aI0
aI0
aI0
aI0
aI0
aI0
aI0
aI0
aI0
aI0
aI0
aI0
aI0
aI0
aI0
aI0
aI0
aI0
aI0
aI0
aI0
aI0
aI0
aI0
aI0
aI0
aI0
aI0
aI0
aI0
aI0
aI0
aI0
aI0
aI0
aI0
aI0
aI0
aI0
aI0
aI0
aI0
aI0
aI0
aI0
aI0
aI0
aI0
aI0
aI0
aI0
aI0
aI0
aI0
aI0
aI0
aI0
aI0
aI0
aI0
aI0
aI0
aI0
aI0
aI0
aI0
aI0
aI0
aI0
aI0
aI0
aI0
aI0
aI0
aI0
aI0
aI0
aI0
aI0
aI0
aI0
aI0
aI0
aI0
aI0
aI0
aI0
aI0
aI0
aI0
aI0
aI0
aI0
aI0
aI0
aI0
aI0
aI0
aI0
aI0
aI0
aI0
aI0
aI0
aI0
aI0
aI0
aI0
aI0
aI0
asg19
F0
sg20
I01
sg21
g22
sg23
g24
sg25
F100
sg26
S'JyEdTqllpmd8yzBuIuMfjILpEnOiyk2%'
p312
sg28
S'Error at Chromosome_0|math range error'
p313
ssg30
Nsg31
I0
sg32
(lp314
g1
(g34
g3
NtRp315
(dp316
g37
F0.10000000000000001
sg38
(lp317
S'0'
aS'1'
asg40
(lp318
S'0'
aS'0'
aS'1'
aS'1'
aS'1'
aS'1'
aS'1'
aS'1'
aS'0'
aS'1'
aS'0'
aS'1'
aS'1'
aS'0'
aS'0'
aS'0'
aS'1'
aS'0'
aS'0'
aS'0'
aS'0'
aS'1'
aS'0'
aS'1'
aS'0'
aS'1'
aS'1'
aS'0'
aS'0'
aS'0'
asbasg42
g43
sbag1
(g9
g3
NtRp319
(dp320
g12
(dp321
g14
Nsg15
F100
sg16
F100
sg17
(lp322
F18.999999969540042
aF-0.76159415595576485
aF5.8430399310198137e+42
aI0
aI0
aF-0.22584863257630261
aF0.99999999587769273
aF3.7621956910836314
aF1.5430806348152437
aF1.5430806348152437
aF167.87857252384407
aF10
aF1.3043045862358962
aF1.3043045862358962
aI0
aI0
aF2.4463520074491623
aF1.4228910844795333
aF1
aI0
aI0
aI0
aI0
aI0
aI0
aI0
aI0
aI0
aI0
aI0
aI0
aI0
aI0
aI0
aI0
aI0
aI0
aI0
aI0
aI0
aI0
aI0
aI0
aI0
aI0
aI0
aI0
aI0
aI0
aI0
aI0
aI0
aI0
aI0
aI0
aI0
aI0
aI0
aI0
aI0
aI0
aI0
aI0
aI0
aI0
aI0
aI0
aI0
aI0
aI0
aI0
aI0
aI0
aI0
aI0
aI0
aI0
aI0
aI0
aI0
aI0
aI0
aI0
aI0
aI0
aI0
aI0
aI0
aI0
aI0
aI0
aI0
aI0
aI0
aI0
aI0
aI0
aI0
aI0
aI0
aI0
aI0
aI0
aI0
aI0
aI0
aI0
aI0
aI0
aI0
aI0
aI0
aI0
aI0
aI0
aI0
aI0
aI0
aI0
aI0
aI0
aI0
aI0
aI0
aI0
aI0
aI0
aI0
aI0
aI0
aI0
aI0
aI0
aI0
aI0
aI0
aI0
aI0
aI0
aI0
aI0
aI0
aI0
aI0
aI0
aI0
aI0
aI0
aI0
aI0
aI0
aI0
aI0
aI0
aI0
aI0
aI0
aI0
aI0
aI0
aI0
aI0
aI0
aI0
aI0
aI0
aI0
aI0
aI0
aI0
aI0
aI0
aI0
aI0
aI0
aI0
aI0
aI0
aI0
aI0
aI0
aI0
aI0
aI0
aI0
aI0
aI0
aI0
aI0
aI0
aI0
aI0
aI0
aI0
aI0
aI0
aI0
aI0
aI0
aI0
asg19
F0
sg20
I01
sg21
g22
sg23
g24
sg25
F100
sg26
S'>ZLBZg?HsjX8dsbnWZlH&D<TWYDZIX>B'
p323
sg28
S'Error at Chromosome_0|math range error'
p324
ssg30
Nsg31
I0
sg32
(lp325
g1
(g34
g3
NtRp326
(dp327
g37
F0.10000000000000001
sg38
(lp328
S'0'
aS'1'
asg40
(lp329
S'0'
aS'1'
aS'1'
aS'1'
aS'1'
aS'0'
aS'0'
aS'0'
aS'1'
aS'0'
aS'1'
aS'1'
aS'0'
aS'0'
aS'0'
aS'0'
aS'1'
aS'1'
aS'0'
aS'1'
aS'1'
aS'1'
aS'1'
aS'1'
aS'1'
aS'1'
aS'0'
aS'0'
aS'0'
aS'0'
asbasg42
g43
sbag1
(g9
g3
NtRp330
(dp331
g12
(dp332
g14
Nsg15
F100
sg16
F100
sg17
(lp333
F1.1943453007124956e+50
aF11123.232920103323
aF1.5430806348152437
aF0.76159415595576485
aF0.76159414316336327
aF29947.070865949761
aF30015.07084924807
aF2.7703111921967549e+34
aF11.543080634815244
aF1
aI0
aF11030.232920103323
aF1.427280071943495
aI0
aI0
aI0
aI0
aI0
aI0
aI0
aI0
aI0
aI0
aI0
aI0
aI0
aI0
aI0
aI0
aI0
aI0
aI0
aI0
aI0
aI0
aI0
aI0
aI0
aI0
aI0
aI0
aI0
aI0
aI0
aI0
aI0
aI0
aI0
aI0
aI0
aI0
aI0
aI0
aI0
aI0
aI0
aI0
aI0
aI0
aI0
aI0
aI0
aI0
aI0
aI0
aI0
aI0
aI0
aI0
aI0
aI0
aI0
aI0
aI0
aI0
aI0
aI0
aI0
aI0
aI0
aI0
aI0
aI0
aI0
aI0
aI0
aI0
aI0
aI0
aI0
aI0
aI0
aI0
aI0
aI0
aI0
aI0
aI0
aI0
aI0
aI0
aI0
aI0
aI0
aI0
aI0
aI0
aI0
aI0
aI0
aI0
aI0
aI0
aI0
aI0
aI0
aI0
aI0
aI0
aI0
aI0
aI0
aI0
aI0
aI0
aI0
aI0
aI0
aI0
aI0
aI0
aI0
aI0
aI0
aI0
aI0
aI0
aI0
aI0
aI0
aI0
aI0
aI0
aI0
aI0
aI0
aI0
aI0
aI0
aI0
aI0
aI0
aI0
aI0
aI0
aI0
aI0
aI0
aI0
aI0
aI0
aI0
aI0
aI0
aI0
aI0
aI0
aI0
aI0
aI0
aI0
aI0
aI0
aI0
aI0
aI0
aI0
aI0
aI0
aI0
aI0
aI0
aI0
aI0
aI0
aI0
aI0
aI0
aI0
aI0
aI0
aI0
aI0
aI0
aI0
aI0
aI0
aI0
aI0
aI0
asg19
F0
sg20
I01
sg21
g22
sg23
g24
sg25
F100
sg26
S'P3k5HNda2%nVlQ@LdG%lexfDWa=x&$Cw'
p334
sg28
S'Error at Chromosome_0|math range error'
p335
ssg30
Nsg31
I0
sg32
(lp336
g1
(g34
g3
NtRp337
(dp338
g37
F0.10000000000000001
sg38
(lp339
S'0'
aS'1'
asg40
(lp340
S'1'
aS'0'
aS'0'
aS'1'
aS'1'
aS'0'
aS'1'
aS'0'
aS'0'
aS'1'
aS'0'
aS'0'
aS'0'
aS'0'
aS'1'
aS'0'
aS'0'
aS'0'
aS'0'
aS'0'
aS'1'
aS'0'
aS'1'
aS'0'
aS'1'
aS'0'
aS'1'
aS'1'
aS'0'
aS'0'
asbasg42
g43
sbag1
(g9
g3
NtRp341
(dp342
g12
(dp343
g14
Nsg15
F100
sg16
F100
sg17
(lp344
F9780.6226586438424
aF2.4463520074491623
aF1.1769263341851003e+17
aI100
aI50
aI10
aI0
aI0
aF242582597.70489514
aI30
aF89241150.481593639
aF89241196.481593639
aI10
aF1
aI0
aF2.4463520074491623
aI0
aF1
aI0
aI0
aI0
aI0
aI0
aI0
aI0
aI0
aI0
aI0
aI0
aI0
aI0
aI0
aI0
aI0
aI0
aI0
aI0
aI0
aI0
aI0
aI0
aI0
aI0
aI0
aI0
aI0
aI0
aI0
aI0
aI0
aI0
aI0
aI0
aI0
aI0
aI0
aI0
aI0
aI0
aI0
aI0
aI0
aI0
aI0
aI0
aI0
aI0
aI0
aI0
aI0
aI0
aI0
aI0
aI0
aI0
aI0
aI0
aI0
aI0
aI0
aI0
aI0
aI0
aI0
aI0
aI0
aI0
aI0
aI0
aI0
aI0
aI0
aI0
aI0
aI0
aI0
aI0
aI0
aI0
aI0
aI0
aI0
aI0
aI0
aI0
aI0
aI0
aI0
aI0
aI0
aI0
aI0
aI0
aI0
aI0
aI0
aI0
aI0
aI0
aI0
aI0
aI0
aI0
aI0
aI0
aI0
aI0
aI0
aI0
aI0
aI0
aI0
aI0
aI0
aI0
aI0
aI0
aI0
aI0
aI0
aI0
aI0
aI0
aI0
aI0
aI0
aI0
aI0
aI0
aI0
aI0
aI0
aI0
aI0
aI0
aI0
aI0
aI0
aI0
aI0
aI0
aI0
aI0
aI0
aI0
aI0
aI0
aI0
aI0
aI0
aI0
aI0
aI0
aI0
aI0
aI0
aI0
aI0
aI0
aI0
aI0
aI0
aI0
aI0
aI0
aI0
aI0
aI0
aI0
aI0
aI0
aI0
aI0
aI0
aI0
aI0
aI0
aI0
aI0
aI0
asg19
F0
sg20
I01
sg21
g22
sg23
g24
sg25
F100
sg26
S'n8?zz=ToZgmEIcNfYhOQH<l6msFhgZWa'
p345
sg28
S'Error at Chromosome_0|math range error'
p346
ssg30
Nsg31
I0
sg32
(lp347
g1
(g34
g3
NtRp348
(dp349
g37
F0.10000000000000001
sg38
(lp350
S'0'
aS'1'
asg40
(lp351
S'1'
aS'0'
aS'0'
aS'1'
aS'1'
aS'1'
aS'1'
aS'0'
aS'1'
aS'1'
aS'1'
aS'0'
aS'0'
aS'1'
aS'0'
aS'0'
aS'0'
aS'1'
aS'1'
aS'0'
aS'0'
aS'0'
aS'1'
aS'1'
aS'0'
aS'1'
aS'1'
aS'0'
aS'0'
aS'0'
asbasg42
g43
sbag1
(g9
g3
NtRp352
(dp353
g12
(dp354
g14
Nsg15
F100
sg16
F100
sg17
(lp355
F29937.070865949761
aI0
aF4.052356840206249e+72
aF11
aF0.68980358170449685
aF1.5430806339526419
aF7904187.3878240027
aF0
aF-1.8871610862597146
aF0.47197991599628375
aF1.5430806339526419
aI0
aF-0.95974603171341755
aI0
aI10
aI0
aI10
aI0
aI0
aI0
aI0
aI0
aI0
aI0
aI0
aI0
aI0
aI0
aI0
aI0
aI0
aI0
aI0
aI0
aI0
aI0
aI0
aI0
aI0
aI0
aI0
aI0
aI0
aI0
aI0
aI0
aI0
aI0
aI0
aI0
aI0
aI0
aI0
aI0
aI0
aI0
aI0
aI0
aI0
aI0
aI0
aI0
aI0
aI0
aI0
aI0
aI0
aI0
aI0
aI0
aI0
aI0
aI0
aI0
aI0
aI0
aI0
aI0
aI0
aI0
aI0
aI0
aI0
aI0
aI0
aI0
aI0
aI0
aI0
aI0
aI0
aI0
aI0
aI0
aI0
aI0
aI0
aI0
aI0
aI0
aI0
aI0
aI0
aI0
aI0
aI0
aI0
aI0
aI0
aI0
aI0
aI0
aI0
aI0
aI0
aI0
aI0
aI0
aI0
aI0
aI0
aI0
aI0
aI0
aI0
aI0
aI0
aI0
aI0
aI0
aI0
aI0
aI0
aI0
aI0
aI0
aI0
aI0
aI0
aI0
aI0
aI0
aI0
aI0
aI0
aI0
aI0
aI0
aI0
aI0
aI0
aI0
aI0
aI0
aI0
aI0
aI0
aI0
aI0
aI0
aI0
aI0
aI0
aI0
aI0
aI0
aI0
aI0
aI0
aI0
aI0
aI0
aI0
aI0
aI0
aI0
aI0
aI0
aI0
aI0
aI0
aI0
aI0
aI0
aI0
aI0
aI0
aI0
aI0
aI0
aI0
aI0
aI0
aI0
aI0
aI0
aI0
aI0
aI0
aI0
asg19
F0
sg20
I01
sg21
g22
sg23
g24
sg25
F100
sg26
S'aL3Fa=IhN@YEaLs?ZNAlxuEps>MPlj@='
p356
sg28
S'Error at Chromosome_0|math range error'
p357
ssg30
Nsg31
I0
sg32
(lp358
g1
(g34
g3
NtRp359
(dp360
g37
F0.10000000000000001
sg38
(lp361
S'0'
aS'1'
asg40
(lp362
S'1'
aS'1'
aS'1'
aS'0'
aS'1'
aS'1'
aS'1'
aS'1'
aS'1'
aS'1'
aS'0'
aS'1'
aS'0'
aS'1'
aS'0'
aS'1'
aS'1'
aS'0'
aS'1'
aS'0'
aS'0'
aS'1'
aS'1'
aS'1'
aS'1'
aS'0'
aS'0'
aS'0'
aS'0'
aS'0'
asbasg42
g43
sbag1
(g9
g3
NtRp363
(dp364
g12
(dp365
g14
Nsg15
F100
sg16
F100
sg17
(lp366
F127290.43385539316
aF102
aF0.99999999587769273
aF0.99999999944210638
aF1
aF1
aF51608.722096349724
aF1
aI0
aI0
aI0
aF4.052356840206249e+72
aI0
aI0
aI0
aI0
aI0
aI0
aI0
aI0
aI0
aI0
aI0
aI0
aI0
aI0
aI0
aI0
aI0
aI0
aI0
aI0
aI0
aI0
aI0
aI0
aI0
aI0
aI0
aI0
aI0
aI0
aI0
aI0
aI0
aI0
aI0
aI0
aI0
aI0
aI0
aI0
aI0
aI0
aI0
aI0
aI0
aI0
aI0
aI0
aI0
aI0
aI0
aI0
aI0
aI0
aI0
aI0
aI0
aI0
aI0
aI0
aI0
aI0
aI0
aI0
aI0
aI0
aI0
aI0
aI0
aI0
aI0
aI0
aI0
aI0
aI0
aI0
aI0
aI0
aI0
aI0
aI0
aI0
aI0
aI0
aI0
aI0
aI0
aI0
aI0
aI0
aI0
aI0
aI0
aI0
aI0
aI0
aI0
aI0
aI0
aI0
aI0
aI0
aI0
aI0
aI0
aI0
aI0
aI0
aI0
aI0
aI0
aI0
aI0
aI0
aI0
aI0
aI0
aI0
aI0
aI0
aI0
aI0
aI0
aI0
aI0
aI0
aI0
aI0
aI0
aI0
aI0
aI0
aI0
aI0
aI0
aI0
aI0
aI0
aI0
aI0
aI0
aI0
aI0
aI0
aI0
aI0
aI0
aI0
aI0
aI0
aI0
aI0
aI0
aI0
aI0
aI0
aI0
aI0
aI0
aI0
aI0
aI0
aI0
aI0
aI0
aI0
aI0
aI0
aI0
aI0
aI0
aI0
aI0
aI0
aI0
aI0
aI0
aI0
aI0
aI0
aI0
aI0
aI0
aI0
aI0
aI0
aI0
aI0
asg19
F0
sg20
I01
sg21
g22
sg23
g24
sg25
F100
sg26
S'ciHLbkyCcd8YZ==>8DdAQLd<m9T1S3eU'
p367
sg28
S'Error at Chromosome_0|math range error'
p368
ssg30
Nsg31
I0
sg32
(lp369
g1
(g34
g3
NtRp370
(dp371
g37
F0.10000000000000001
sg38
(lp372
S'0'
aS'1'
asg40
(lp373
S'1'
aS'0'
aS'0'
aS'0'
aS'1'
aS'0'
aS'0'
aS'1'
aS'0'
aS'1'
aS'0'
aS'0'
aS'0'
aS'0'
aS'1'
aS'0'
aS'1'
aS'1'
aS'0'
aS'0'
aS'0'
aS'0'
aS'0'
aS'1'
aS'0'
aS'1'
aS'1'
aS'1'
aS'0'
aS'0'
asbasg42
g43
sbag1
(g9
g3
NtRp374
(dp375
g12
(dp376
g14
Nsg15
F100
sg16
F100
sg17
(lp377
F4.052356840206249e+72
aF1.0558429994967065
aF4.052356840206249e+72
aI0
aI0
aF23582.905276244262
aF79636.0170703654
aF1.5430806348152437
aF1
aI0
aI0
aF1.3043045862358962
aI0
aI0
aI0
aI0
aI0
aI0
aI0
aI0
aI0
aI0
aI0
aI0
aI0
aI0
aI0
aI0
aI0
aI0
aI0
aI0
aI0
aI0
aI0
aI0
aI0
aI0
aI0
aI0
aI0
aI0
aI0
aI0
aI0
aI0
aI0
aI0
aI0
aI0
aI0
aI0
aI0
aI0
aI0
aI0
aI0
aI0
aI0
aI0
aI0
aI0
aI0
aI0
aI0
aI0
aI0
aI0
aI0
aI0
aI0
aI0
aI0
aI0
aI0
aI0
aI0
aI0
aI0
aI0
aI0
aI0
aI0
aI0
aI0
aI0
aI0
aI0
aI0
aI0
aI0
aI0
aI0
aI0
aI0
aI0
aI0
aI0
aI0
aI0
aI0
aI0
aI0
aI0
aI0
aI0
aI0
aI0
aI0
aI0
aI0
aI0
aI0
aI0
aI0
aI0
aI0
aI0
aI0
aI0
aI0
aI0
aI0
aI0
aI0
aI0
aI0
aI0
aI0
aI0
aI0
aI0
aI0
aI0
aI0
aI0
aI0
aI0
aI0
aI0
aI0
aI0
aI0
aI0
aI0
aI0
aI0
aI0
aI0
aI0
aI0
aI0
aI0
aI0
aI0
aI0
aI0
aI0
aI0
aI0
aI0
aI0
aI0
aI0
aI0
aI0
aI0
aI0
aI0
aI0
aI0
aI0
aI0
aI0
aI0
aI0
aI0
aI0
aI0
aI0
aI0
aI0
aI0
aI0
aI0
aI0
aI0
aI0
aI0
aI0
aI0
aI0
aI0
aI0
aI0
aI0
aI0
aI0
aI0
aI0
asg19
F0
sg20
I01
sg21
g22
sg23
g24
sg25
F100
sg26
S'9z$qK@CkhxC&R44>n5GN%vQi=3O7zlU@'
p378
sg28
S'Error at Chromosome_0|math range error'
p379
ssg30
Nsg31
I0
sg32
(lp380
g1
(g34
g3
NtRp381
(dp382
g37
F0.10000000000000001
sg38
(lp383
S'0'
aS'1'
asg40
(lp384
S'1'
aS'1'
aS'1'
aS'0'
aS'0'
aS'0'
aS'1'
aS'1'
aS'1'
aS'0'
aS'0'
aS'0'
aS'1'
aS'0'
aS'0'
aS'0'
aS'1'
aS'0'
aS'0'
aS'0'
aS'1'
aS'1'
aS'0'
aS'1'
aS'1'
aS'1'
aS'0'
aS'1'
aS'0'
aS'0'
asbasg42
g43
sbag1
(g9
g3
NtRp385
(dp386
g12
(dp387
g14
Nsg15
F100
sg16
F100
sg17
(lp388
F1517.4788257896646
aF93718439175211376
aF0
aF0.91263657596321157
aI0
aF4.052356840206249e+72
aF4.052356840206249e+72
aF0.64201499200436618
aI10
aI40
aI0
aI0
aF0.76159415595576485
aI0
aI0
aI0
aI0
aI0
aI0
aI0
aI0
aI0
aI0
aI0
aI0
aI0
aI0
aI0
aI0
aI0
aI0
aI0
aI0
aI0
aI0
aI0
aI0
aI0
aI0
aI0
aI0
aI0
aI0
aI0
aI0
aI0
aI0
aI0
aI0
aI0
aI0
aI0
aI0
aI0
aI0
aI0
aI0
aI0
aI0
aI0
aI0
aI0
aI0
aI0
aI0
aI0
aI0
aI0
aI0
aI0
aI0
aI0
aI0
aI0
aI0
aI0
aI0
aI0
aI0
aI0
aI0
aI0
aI0
aI0
aI0
aI0
aI0
aI0
aI0
aI0
aI0
aI0
aI0
aI0
aI0
aI0
aI0
aI0
aI0
aI0
aI0
aI0
aI0
aI0
aI0
aI0
aI0
aI0
aI0
aI0
aI0
aI0
aI0
aI0
aI0
aI0
aI0
aI0
aI0
aI0
aI0
aI0
aI0
aI0
aI0
aI0
aI0
aI0
aI0
aI0
aI0
aI0
aI0
aI0
aI0
aI0
aI0
aI0
aI0
aI0
aI0
aI0
aI0
aI0
aI0
aI0
aI0
aI0
aI0
aI0
aI0
aI0
aI0
aI0
aI0
aI0
aI0
aI0
aI0
aI0
aI0
aI0
aI0
aI0
aI0
aI0
aI0
aI0
aI0
aI0
aI0
aI0
aI0
aI0
aI0
aI0
aI0
aI0
aI0
aI0
aI0
aI0
aI0
aI0
aI0
aI0
aI0
aI0
aI0
aI0
aI0
aI0
aI0
aI0
aI0
aI0
aI0
aI0
aI0
aI0
asg19
F0
sg20
I01
sg21
g22
sg23
g24
sg25
F100
sg26
S'ZFyuE?Vc&UBZqL$=$zKy13Dt8Qb=%#NL'
p389
sg28
S'Error at Chromosome_0|math range error'
p390
ssg30
Nsg31
I0
sg32
(lp391
g1
(g34
g3
NtRp392
(dp393
g37
F0.10000000000000001
sg38
(lp394
S'0'
aS'1'
asg40
(lp395
S'1'
aS'1'
aS'0'
aS'0'
aS'1'
aS'1'
aS'1'
aS'0'
aS'0'
aS'0'
aS'1'
aS'0'
aS'1'
aS'1'
aS'1'
aS'1'
aS'0'
aS'0'
aS'0'
aS'0'
aS'0'
aS'0'
aS'1'
aS'1'
aS'0'
aS'0'
aS'1'
aS'0'
aS'0'
aS'0'
asbasg42
g43
sbag1
(g9
g3
NtRp396
(dp397
g12
(dp398
g14
Nsg15
F100
sg16
F100
sg17
(lp399
F-1.0000000283454966
aF1.4231476975547646
aF0.43979766124265846
aF242582597.70489514
aF1.7390194251057594
aF1.2069871299804937
aF0.99668050308568168
aF11013.232920103323
aF4.052356840206249e+72
aF1.5430806348152437
aF0.76159415595576485
aI0
aI0
aF4.052356840206249e+72
aI0
aI0
aI0
aI0
aF1.5430806348152437
aI0
aI0
aI0
aI0
aF1.5430806348152437
aI0
aI0
aI0
aI0
aI0
aI0
aI0
aI0
aI0
aI0
aI0
aI0
aI0
aI0
aI0
aI0
aI0
aI0
aI0
aI0
aI0
aI0
aI0
aI0
aI0
aI0
aI0
aI0
aI0
aI0
aI0
aI0
aI0
aI0
aI0
aI0
aI0
aI0
aI0
aI0
aI0
aI0
aI0
aI0
aI0
aI0
aI0
aI0
aI0
aI0
aI0
aI0
aI0
aI0
aI0
aI0
aI0
aI0
aI0
aI0
aI0
aI0
aI0
aI0
aI0
aI0
aI0
aI0
aI0
aI0
aI0
aI0
aI0
aI0
aI0
aI0
aI0
aI0
aI0
aI0
aI0
aI0
aI0
aI0
aI0
aI0
aI0
aI0
aI0
aI0
aI0
aI0
aI0
aI0
aI0
aI0
aI0
aI0
aI0
aI0
aI0
aI0
aI0
aI0
aI0
aI0
aI0
aI0
aI0
aI0
aI0
aI0
aI0
aI0
aI0
aI0
aI0
aI0
aI0
aI0
aI0
aI0
aI0
aI0
aI0
aI0
aI0
aI0
aI0
aI0
aI0
aI0
aI0
aI0
aI0
aI0
aI0
aI0
aI0
aI0
aI0
aI0
aI0
aI0
aI0
aI0
aI0
aI0
aI0
aI0
aI0
aI0
aI0
aI0
aI0
aI0
aI0
aI0
aI0
aI0
aI0
aI0
aI0
aI0
aI0
aI0
aI0
aI0
aI0
aI0
aI0
aI0
aI0
aI0
aI0
aI0
asg19
F0
sg20
I01
sg21
g22
sg23
g24
sg25
F100
sg26
S'NL6wkP6WGN1ZvxVJqo2<#MEwkY3&HT?B'
p400
sg28
S'Error at Chromosome_0|math range error'
p401
ssg30
Nsg31
I0
sg32
(lp402
g1
(g34
g3
NtRp403
(dp404
g37
F0.10000000000000001
sg38
(lp405
S'0'
aS'1'
asg40
(lp406
S'0'
aS'0'
aS'1'
aS'1'
aS'0'
aS'1'
aS'1'
aS'0'
aS'0'
aS'0'
aS'0'
aS'0'
aS'1'
aS'0'
aS'1'
aS'0'
aS'0'
aS'0'
aS'0'
aS'0'
aS'0'
aS'0'
aS'0'
aS'0'
aS'0'
aS'0'
aS'1'
aS'1'
aS'0'
aS'0'
asbasg42
g43
sbag1
(g9
g3
NtRp407
(dp408
g12
(dp409
g14
Nsg15
F100
sg16
F100
sg17
(lp410
F2783.4711331084823
aI19
aF2933831536977303
aI-1
aI0
aF0.76159415594435464
aF4064.5420254925939
aF-2
aI-1
aI0
aF0.64205538211698976
aF1.0000005926669533
aI0
aI-1
aI-2
aF67910.093024800444
aF4050.5420254925939
aI0
aI0
aI-2
aF4051.5420254925939
aI0
aI0
aI0
aI0
aI0
aI0
aI0
aI0
aI0
aI0
aI0
aI0
aI0
aI0
aI0
aI0
aI0
aI0
aI0
aI0
aI0
aI0
aI0
aI0
aI0
aI0
aI0
aI0
aI0
aI0
aI0
aI0
aI0
aI0
aI0
aI0
aI0
aI0
aI0
aI0
aI0
aI0
aI0
aI0
aI0
aI0
aI0
aI0
aI0
aI0
aI0
aI0
aI0
aI0
aI0
aI0
aI0
aI0
aI0
aI0
aI0
aI0
aI0
aI0
aI0
aI0
aI0
aI0
aI0
aI0
aI0
aI0
aI0
aI0
aI0
aI0
aI0
aI0
aI0
aI0
aI0
aI0
aI0
aI0
aI0
aI0
aI0
aI0
aI0
aI0
aI0
aI0
aI0
aI0
aI0
aI0
aI0
aI0
aI0
aI0
aI0
aI0
aI0
aI0
aI0
aI0
aI0
aI0
aI0
aI0
aI0
aI0
aI0
aI0
aI0
aI0
aI0
aI0
aI0
aI0
aI0
aI0
aI0
aI0
aI0
aI0
aI0
aI0
aI0
aI0
aI0
aI0
aI0
aI0
aI0
aI0
aI0
aI0
aI0
aI0
aI0
aI0
aI0
aI0
aI0
aI0
aI0
aI0
aI0
aI0
aI0
aI0
aI0
aI0
aI0
aI0
aI0
aI0
aI0
aI0
aI0
aI0
aI0
aI0
aI0
aI0
aI0
aI0
aI0
aI0
aI0
aI0
aI0
aI0
aI0
aI0
aI0
aI0
aI0
asg19
F0
sg20
I01
sg21
g22
sg23
g24
sg25
F100
sg26
S'kC84NWXmK#TYUU=89yrgB22sdNrqS17d'
p411
sg28
S'Error at Chromosome_0|math range error'
p412
ssg30
Nsg31
I0
sg32
(lp413
g1
(g34
g3
NtRp414
(dp415
g37
F0.10000000000000001
sg38
(lp416
S'0'
aS'1'
asg40
(lp417
S'1'
aS'0'
aS'0'
aS'0'
aS'0'
aS'1'
aS'1'
aS'0'
aS'0'
aS'0'
aS'0'
aS'1'
aS'1'
aS'0'
aS'1'
aS'0'
aS'0'
aS'0'
aS'0'
aS'1'
aS'1'
aS'1'
aS'1'
aS'0'
aS'1'
aS'1'
aS'1'
aS'1'
aS'0'
aS'0'
asbasg42
g43
sbag1
(g9
g3
NtRp418
(dp419
g12
(dp420
g14
Nsg15
F100
sg16
F100
sg17
(lp421
F9.7615941531668202
aF1965667148775.021
aF723128532145.73755
aI10
aI0
aF4.052356840206249e+72
aF1
aF1.1769263341851003e+17
aI0
aF1.3959093421023823
aF1.5430806348152437
aF1
aF1.5430806299707034
aI0
aI0
aI0
aI0
aI0
aI0
aI0
aI0
aI0
aI0
aI0
aI0
aI0
aI0
aI0
aI0
aI0
aI0
aI0
aI0
aI0
aI0
aI0
aI0
aI0
aI0
aI0
aI0
aI0
aI0
aI0
aI0
aI0
aI0
aI0
aI0
aI0
aI0
aI0
aI0
aI0
aI0
aI0
aI0
aI0
aI0
aI0
aI0
aI0
aI0
aI0
aI0
aI0
aI0
aI0
aI0
aI0
aI0
aI0
aI0
aI0
aI0
aI0
aI0
aI0
aI0
aI0
aI0
aI0
aI0
aI0
aI0
aI0
aI0
aI0
aI0
aI0
aI0
aI0
aI0
aI0
aI0
aI0
aI0
aI0
aI0
aI0
aI0
aI0
aI0
aI0
aI0
aI0
aI0
aI0
aI0
aI0
aI0
aI0
aI0
aI0
aI0
aI0
aI0
aI0
aI0
aI0
aI0
aI0
aI0
aI0
aI0
aI0
aI0
aI0
aI0
aI0
aI0
aI0
aI0
aI0
aI0
aI0
aI0
aI0
aI0
aI0
aI0
aI0
aI0
aI0
aI0
aI0
aI0
aI0
aI0
aI0
aI0
aI0
aI0
aI0
aI0
aI0
aI0
aI0
aI0
aI0
aI0
aI0
aI0
aI0
aI0
aI0
aI0
aI0
aI0
aI0
aI0
aI0
aI0
aI0
aI0
aI0
aI0
aI0
aI0
aI0
aI0
aI0
aI0
aI0
aI0
aI0
aI0
aI0
aI0
aI0
aI0
aI0
aI0
aI0
aI0
aI0
aI0
aI0
aI0
aI0
asg19
F0
sg20
I01
sg21
g22
sg23
g24
sg25
F100
sg26
S'kAYPhI7LbMb5CUybIG6IwmvrHgFSTStA'
p422
sg28
S'Error at Chromosome_0|math range error'
p423
ssg30
Nsg31
I0
sg32
(lp424
g1
(g34
g3
NtRp425
(dp426
g37
F0.10000000000000001
sg38
(lp427
S'0'
aS'1'
asg40
(lp428
S'1'
aS'0'
aS'1'
aS'1'
aS'0'
aS'1'
aS'1'
aS'1'
aS'0'
aS'0'
aS'1'
aS'1'
aS'0'
aS'1'
aS'0'
aS'1'
aS'1'
aS'0'
aS'0'
aS'0'
aS'1'
aS'0'
aS'1'
aS'1'
aS'1'
aS'1'
aS'1'
aS'1'
aS'0'
aS'0'
asbasg42
g43
sbag1
(g9
g3
NtRp429
(dp430
g12
(dp431
g14
Nsg15
F100
sg16
F100
sg17
(lp432
F1.4749264841725509
aF167.87857252384407
aF0.5126146671514058
aF2.1841877019103895
aF1
aF11.543080634815244
aF1.3043045862358962
aF1.4461728085856087
aF167.87857252384407
aF1.543059785562849
aI0
aF5.8163792453876901
aF1.4461728085856087
aF1
aI0
aI0
aI0
aF4.052356840206249e+72
aI0
aI0
aI0
aI0
aI0
aI0
aI0
aI0
aI0
aI0
aI0
aI0
aI0
aI0
aI0
aI0
aI0
aI0
aI0
aI0
aI0
aI0
aI0
aI0
aI0
aI0
aI0
aI0
aI0
aI0
aI0
aI0
aI0
aI0
aI0
aI0
aI0
aI0
aI0
aI0
aI0
aI0
aI0
aI0
aI0
aI0
aI0
aI0
aI0
aI0
aI0
aI0
aI0
aI0
aI0
aI0
aI0
aI0
aI0
aI0
aI0
aI0
aI0
aI0
aI0
aI0
aI0
aI0
aI0
aI0
aI0
aI0
aI0
aI0
aI0
aI0
aI0
aI0
aI0
aI0
aI0
aI0
aI0
aI0
aI0
aI0
aI0
aI0
aI0
aI0
aI0
aI0
aI0
aI0
aI0
aI0
aI0
aI0
aI0
aI0
aI0
aI0
aI0
aI0
aI0
aI0
aI0
aI0
aI0
aI0
aI0
aI0
aI0
aI0
aI0
aI0
aI0
aI0
aI0
aI0
aI0
aI0
aI0
aI0
aI0
aI0
aI0
aI0
aI0
aI0
aI0
aI0
aI0
aI0
aI0
aI0
aI0
aI0
aI0
aI0
aI0
aI0
aI0
aI0
aI0
aI0
aI0
aI0
aI0
aI0
aI0
aI0
aI0
aI0
aI0
aI0
aI0
aI0
aI0
aI0
aI0
aI0
aI0
aI0
aI0
aI0
aI0
aI0
aI0
aI0
aI0
aI0
aI0
aI0
aI0
aI0
aI0
aI0
aI0
aI0
aI0
aI0
asg19
F0
sg20
I01
sg21
g22
sg23
g24
sg25
F100
sg26
S'x6c>f<#QqfEcQm=<Zq&cL7>r3EVPSfnF'
p433
sg28
S'Error at Chromosome_0|math range error'
p434
ssg30
Nsg31
I0
sg32
(lp435
g1
(g34
g3
NtRp436
(dp437
g37
F0.10000000000000001
sg38
(lp438
S'0'
aS'1'
asg40
(lp439
S'0'
aS'1'
aS'1'
aS'1'
aS'0'
aS'1'
aS'1'
aS'0'
aS'0'
aS'0'
aS'0'
aS'0'
aS'1'
aS'0'
aS'0'
aS'1'
aS'1'
aS'0'
aS'0'
aS'0'
aS'1'
aS'1'
aS'0'
aS'0'
aS'1'
aS'0'
aS'1'
aS'1'
aS'0'
aS'0'
asbasg42
g43
sbag1
(g9
g3
NtRp440
(dp441
g12
(dp442
g14
Nsg15
F100
sg16
F100
sg17
(lp443
F1.7725655913805832e+52
aF2.446352005985367
aF10.999999999442107
aF1965667148572.021
aF2.4463520074491623
aF33.594456306716509
aI110
aF1.2906564430950338e+20
aF242582637.70489514
aF2.7703111921967549e+34
aI20
aF4.052356840206249e+72
aF2.4463520074491623
aF1.5430806348152437
aI0
aI0
aI0
aI0
aI0
aI0
aI0
aI0
aI0
aI0
aI0
aI0
aI0
aI0
aI0
aI0
aI0
aI0
aI0
aI0
aI0
aI0
aI0
aI0
aI0
aI0
aI0
aI0
aI0
aI0
aI0
aI0
aI0
aI0
aI0
aI0
aI0
aI0
aI0
aI0
aI0
aI0
aI0
aI0
aI0
aI0
aI0
aI0
aI0
aI0
aI0
aI0
aI0
aI0
aI0
aI0
aI0
aI0
aI0
aI0
aI0
aI0
aI0
aI0
aI0
aI0
aI0
aI0
aI0
aI0
aI0
aI0
aI0
aI0
aI0
aI0
aI0
aI0
aI0
aI0
aI0
aI0
aI0
aI0
aI0
aI0
aI0
aI0
aI0
aI0
aI0
aI0
aI0
aI0
aI0
aI0
aI0
aI0
aI0
aI0
aI0
aI0
aI0
aI0
aI0
aI0
aI0
aI0
aI0
aI0
aI0
aI0
aI0
aI0
aI0
aI0
aI0
aI0
aI0
aI0
aI0
aI0
aI0
aI0
aI0
aI0
aI0
aI0
aI0
aI0
aI0
aI0
aI0
aI0
aI0
aI0
aI0
aI0
aI0
aI0
aI0
aI0
aI0
aI0
aI0
aI0
aI0
aI0
aI0
aI0
aI0
aI0
aI0
aI0
aI0
aI0
aI0
aI0
aI0
aI0
aI0
aI0
aI0
aI0
aI0
aI0
aI0
aI0
aI0
aI0
aI0
aI0
aI0
aI0
aI0
aI0
aI0
aI0
aI0
aI0
aI0
aI0
aI0
aI0
aI0
aI0
asg19
F0
sg20
I01
sg21
g22
sg23
g24
sg25
F100
sg26
S'duXWw8ajpJLF&6MvfVhMRg%hLvfGkZaR'
p444
sg28
S'Error at Chromosome_0|math range error'
p445
ssg30
Nsg31
I0
sg32
(lp446
g1
(g34
g3
NtRp447
(dp448
g37
F0.10000000000000001
sg38
(lp449
S'0'
aS'1'
asg40
(lp450
S'0'
aS'1'
aS'0'
aS'0'
aS'1'
aS'0'
aS'1'
aS'1'
aS'0'
aS'0'
aS'0'
aS'0'
aS'1'
aS'0'
aS'0'
aS'0'
aS'0'
aS'0'
aS'0'
aS'0'
aS'0'
aS'1'
aS'1'
aS'1'
aS'0'
aS'0'
aS'1'
aS'1'
aS'0'
aS'0'
asbasg42
g43
sbag1
(g9
g3
NtRp451
(dp452
g12
(dp453
g14
Nsg15
F100
sg16
F100
sg17
(lp454
F51983.722084946785
aF7647875.2564361952
aF2.4463520074491623
aF11013.232920103323
aF11013.232920103323
aF5343237290802.2314
aI40
aF242582657.70489514
aF11063.232920103323
aF1
aF2.4463520074491623
aI0
aI0
aI0
aI0
aI0
aI0
aI0
aI0
aI0
aI0
aI0
aI0
aI0
aI0
aI0
aI0
aI0
aI0
aI0
aI0
aI0
aI0
aI0
aI0
aI0
aI0
aI0
aI0
aI0
aI0
aI0
aI0
aI0
aI0
aI0
aI0
aI0
aI0
aI0
aI0
aI0
aI0
aI0
aI0
aI0
aI0
aI0
aI0
aI0
aI0
aI0
aI0
aI0
aI0
aI0
aI0
aI0
aI0
aI0
aI0
aI0
aI0
aI0
aI0
aI0
aI0
aI0
aI0
aI0
aI0
aI0
aI0
aI0
aI0
aI0
aI0
aI0
aI0
aI0
aI0
aI0
aI0
aI0
aI0
aI0
aI0
aI0
aI0
aI0
aI0
aI0
aI0
aI0
aI0
aI0
aI0
aI0
aI0
aI0
aI0
aI0
aI0
aI0
aI0
aI0
aI0
aI0
aI0
aI0
aI0
aI0
aI0
aI0
aI0
aI0
aI0
aI0
aI0
aI0
aI0
aI0
aI0
aI0
aI0
aI0
aI0
aI0
aI0
aI0
aI0
aI0
aI0
aI0
aI0
aI0
aI0
aI0
aI0
aI0
aI0
aI0
aI0
aI0
aI0
aI0
aI0
aI0
aI0
aI0
aI0
aI0
aI0
aI0
aI0
aI0
aI0
aI0
aI0
aI0
aI0
aI0
aI0
aI0
aI0
aI0
aI0
aI0
aI0
aI0
aI0
aI0
aI0
aI0
aI0
aI0
aI0
aI0
aI0
aI0
aI0
aI0
aI0
aI0
aI0
aI0
aI0
aI0
aI0
aI0
asg19
F0
sg20
I01
sg21
g22
sg23
g24
sg25
F100
sg26
S'rhzIy&=hq8wQFmEMQoM=C41@JE1oP1YY'
p455
sg28
S'Error at Chromosome_0|math range error'
p456
ssg30
Nsg31
I0
sg32
(lp457
g1
(g34
g3
NtRp458
(dp459
g37
F0.10000000000000001
sg38
(lp460
S'0'
aS'1'
asg40
(lp461
S'0'
aS'1'
aS'1'
aS'0'
aS'0'
aS'1'
aS'1'
aS'0'
aS'0'
aS'0'
aS'0'
aS'1'
aS'1'
aS'0'
aS'1'
aS'1'
aS'0'
aS'0'
aS'1'
aS'1'
aS'0'
aS'0'
aS'0'
aS'0'
aS'1'
aS'0'
aS'1'
aS'0'
aS'0'
aS'0'
asbasg42
g43
sbag1
(g9
g3
NtRp462
(dp463
g12
(dp464
g14
Nsg15
F100
sg16
F100
sg17
(lp465
F25.458425746964153
aF0.03920697311282538
aF2.4463520074491623
aI0
aI0
aF1.5430806348152437
aF30.812482168784406
aF20
aI20
aI0
aF1
aF60
aF10.761594155955764
aI0
aI0
aI-1
aF21.543080634815244
aI0
aI0
aI0
aI0
aI0
aI0
aI0
aI0
aI0
aI0
aI0
aI0
aI0
aI0
aI0
aI0
aI0
aI0
aI0
aI0
aI0
aI0
aI0
aI0
aI0
aI0
aI0
aI0
aI0
aI0
aI0
aI0
aI0
aI0
aI0
aI0
aI0
aI0
aI0
aI0
aI0
aI0
aI0
aI0
aI0
aI0
aI0
aI0
aI0
aI0
aI0
aI0
aI0
aI0
aI0
aI0
aI0
aI0
aI0
aI0
aI0
aI0
aI0
aI0
aI0
aI0
aI0
aI0
aI0
aI0
aI0
aI0
aI0
aI0
aI0
aI0
aI0
aI0
aI0
aI0
aI0
aI0
aI0
aI0
aI0
aI0
aI0
aI0
aI0
aI0
aI0
aI0
aI0
aI0
aI0
aI0
aI0
aI0
aI0
aI0
aI0
aI0
aI0
aI0
aI0
aI0
aI0
aI0
aI0
aI0
aI0
aI0
aI0
aI0
aI0
aI0
aI0
aI0
aI0
aI0
aI0
aI0
aI0
aI0
aI0
aI0
aI0
aI0
aI0
aI0
aI0
aI0
aI0
aI0
aI0
aI0
aI0
aI0
aI0
aI0
aI0
aI0
aI0
aI0
aI0
aI0
aI0
aI0
aI0
aI0
aI0
aI0
aI0
aI0
aI0
aI0
aI0
aI0
aI0
aI0
aI0
aI0
aI0
aI0
aI0
aI0
aI0
aI0
aI0
aI0
aI0
aI0
aI0
aI0
aI0
aI0
aI0
aI0
aI0
aI0
aI0
aI0
aI0
asg19
F0
sg20
I01
sg21
g22
sg23
g24
sg25
F100
sg26
S'v7I6&Ie$KOQXbfK5UgV#kxa%xJ3y$t5V'
p466
sg28
S'Error at Chromosome_0|math range error'
p467
ssg30
Nsg31
I0
sg32
(lp468
g1
(g34
g3
NtRp469
(dp470
g37
F0.10000000000000001
sg38
(lp471
S'0'
aS'1'
asg40
(lp472
S'0'
aS'1'
aS'0'
aS'0'
aS'0'
aS'1'
aS'1'
aS'1'
aS'1'
aS'0'
aS'1'
aS'0'
aS'1'
aS'0'
aS'0'
aS'1'
aS'0'
aS'1'
aS'1'
aS'0'
aS'0'
aS'0'
aS'0'
aS'0'
aS'0'
aS'1'
aS'0'
aS'0'
aS'0'
aS'0'
asbasg42
g43
sbag1
(g9
g3
NtRp473
(dp474
g12
(dp475
g14
Nsg15
F100
sg16
F100
sg17
(lp476
F1
aF1.0077660880628692
aF1135039736.5300772
aF11012.232920103323
aF1
aF0.64201499201199974
aF111929734.15009695
aF-1.2283850771565712
aF4.052356840206249e+72
aF4.052356840206249e+72
aF1.2415092993128409
aF1.7900755374831639e+132
aF-1.2196334160793014
aI0
aI0
aF1.5430806348152437
aF1
aI0
aI0
aI0
aI0
aI0
aI0
aI0
aI0
aI0
aI0
aI0
aI0
aI0
aI0
aI0
aI0
aI0
aI0
aI0
aI0
aI0
aI0
aI0
aI0
aI0
aI0
aI0
aI0
aI0
aI0
aI0
aI0
aI0
aI0
aI0
aI0
aI0
aI0
aI0
aI0
aI0
aI0
aI0
aI0
aI0
aI0
aI0
aI0
aI0
aI0
aI0
aI0
aI0
aI0
aI0
aI0
aI0
aI0
aI0
aI0
aI0
aI0
aI0
aI0
aI0
aI0
aI0
aI0
aI0
aI0
aI0
aI0
aI0
aI0
aI0
aI0
aI0
aI0
aI0
aI0
aI0
aI0
aI0
aI0
aI0
aI0
aI0
aI0
aI0
aI0
aI0
aI0
aI0
aI0
aI0
aI0
aI0
aI0
aI0
aI0
aI0
aI0
aI0
aI0
aI0
aI0
aI0
aI0
aI0
aI0
aI0
aI0
aI0
aI0
aI0
aI0
aI0
aI0
aI0
aI0
aI0
aI0
aI0
aI0
aI0
aI0
aI0
aI0
aI0
aI0
aI0
aI0
aI0
aI0
aI0
aI0
aI0
aI0
aI0
aI0
aI0
aI0
aI0
aI0
aI0
aI0
aI0
aI0
aI0
aI0
aI0
aI0
aI0
aI0
aI0
aI0
aI0
aI0
aI0
aI0
aI0
aI0
aI0
aI0
aI0
aI0
aI0
aI0
aI0
aI0
aI0
aI0
aI0
aI0
aI0
aI0
aI0
aI0
aI0
aI0
aI0
aI0
aI0
asg19
F0
sg20
I01
sg21
g22
sg23
g24
sg25
F100
sg26
S'3kuVkk9j%rXVJ$$>5EI7meyKmpYN$V$z'
p477
sg28
S'Error at Chromosome_0|math range error'
p478
ssg30
Nsg31
I0
sg32
(lp479
g1
(g34
g3
NtRp480
(dp481
g37
F0.10000000000000001
sg38
(lp482
S'0'
aS'1'
asg40
(lp483
S'1'
aS'1'
aS'0'
aS'1'
aS'0'
aS'0'
aS'1'
aS'0'
aS'1'
aS'0'
aS'1'
aS'0'
aS'0'
aS'1'
aS'0'
aS'1'
aS'1'
aS'0'
aS'0'
aS'1'
aS'0'
aS'1'
aS'1'
aS'1'
aS'1'
aS'0'
aS'1'
aS'0'
aS'0'
aS'0'
asbasg42
g43
sbag1
(g9
g3
NtRp484
(dp485
g12
(dp486
g14
Nsg15
F100
sg16
F100
sg17
(lp487
F0.76159415316682089
aF1.1517215415644904
aF0.64201499201199974
aI0
aI0
aF-0.35550515443735042
aF0.89007522933684091
aF1.5430806348152437
aI0
aI0
aF1
aF4331.1644700094475
aF0.55000663656513538
aF1.0038186117572763
aI0
aF1.0114416779960145
aF0
aF1.5430806348152437
aF1.1511285919839405
aI0
aF1.0094229500384166
aI0
aI0
aI0
aI0
aF1.5430806348152437
aI0
aI0
aI0
aI0
aI0
aI0
aI0
aI0
aI0
aI0
aI0
aI0
aI0
aI0
aI0
aI0
aI0
aI0
aI0
aI0
aI0
aI0
aI0
aI0
aI0
aI0
aI0
aI0
aI0
aI0
aI0
aI0
aI0
aI0
aI0
aI0
aI0
aI0
aI0
aI0
aI0
aI0
aI0
aI0
aI0
aI0
aI0
aI0
aI0
aI0
aI0
aI0
aI0
aI0
aI0
aI0
aI0
aI0
aI0
aI0
aI0
aI0
aI0
aI0
aI0
aI0
aI0
aI0
aI0
aI0
aI0
aI0
aI0
aI0
aI0
aI0
aI0
aI0
aI0
aI0
aI0
aI0
aI0
aI0
aI0
aI0
aI0
aI0
aI0
aI0
aI0
aI0
aI0
aI0
aI0
aI0
aI0
aI0
aI0
aI0
aI0
aI0
aI0
aI0
aI0
aI0
aI0
aI0
aI0
aI0
aI0
aI0
aI0
aI0
aI0
aI0
aI0
aI0
aI0
aI0
aI0
aI0
aI0
aI0
aI0
aI0
aI0
aI0
aI0
aI0
aI0
aI0
aI0
aI0
aI0
aI0
aI0
aI0
aI0
aI0
aI0
aI0
aI0
aI0
aI0
aI0
aI0
aI0
aI0
aI0
aI0
aI0
aI0
aI0
aI0
aI0
aI0
aI0
aI0
aI0
aI0
aI0
aI0
aI0
aI0
aI0
aI0
aI0
aI0
aI0
aI0
aI0
aI0
aI0
asg19
F0
sg20
I01
sg21
g22
sg23
g24
sg25
F100
sg26
S'$FiAANAMLHddm=?p1dCZdL2j%3QkIcMM'
p488
sg28
S'Error at Chromosome_0|math range error'
p489
ssg30
Nsg31
I0
sg32
(lp490
g1
(g34
g3
NtRp491
(dp492
g37
F0.10000000000000001
sg38
(lp493
S'0'
aS'1'
asg40
(lp494
S'0'
aS'0'
aS'0'
aS'1'
aS'1'
aS'1'
aS'0'
aS'0'
aS'0'
aS'1'
aS'0'
aS'1'
aS'0'
aS'0'
aS'1'
aS'1'
aS'0'
aS'1'
aS'0'
aS'0'
aS'0'
aS'1'
aS'0'
aS'1'
aS'0'
aS'1'
aS'1'
aS'1'
aS'0'
aS'0'
asbasg42
g43
sbag1
(g9
g3
NtRp495
(dp496
g12
(dp497
g14
Nsg15
F100
sg16
F100
sg17
(lp498
F4.052356840206249e+72
aF7.0899148346990515
aF-5.3816091715870193
aF1.4279039171713013
aF11.543080634815244
aF36933.20500099934
aF97949855575428464
aF4.5897146557176676
aF1.5430806348152437
aF1.5430806348152437
aF1
aF1.5430806348152437
aI10
aF1.5430806348152437
aF2.4463520074491623
aI0
aI0
aI0
aI0
aI0
aI0
aI0
aI0
aI0
aI0
aI0
aI0
aI0
aI0
aI0
aI0
aI0
aI0
aI0
aI0
aI0
aI0
aI0
aI0
aI0
aI0
aI0
aI0
aI0
aI0
aI0
aI0
aI0
aI0
aI0
aI0
aI0
aI0
aI0
aI0
aI0
aI0
aI0
aI0
aI0
aI0
aI0
aI0
aI0
aI0
aI0
aI0
aI0
aI0
aI0
aI0
aI0
aI0
aI0
aI0
aI0
aI0
aI0
aI0
aI0
aI0
aI0
aI0
aI0
aI0
aI0
aI0
aI0
aI0
aI0
aI0
aI0
aI0
aI0
aI0
aI0
aI0
aI0
aI0
aI0
aI0
aI0
aI0
aI0
aI0
aI0
aI0
aI0
aI0
aI0
aI0
aI0
aI0
aI0
aI0
aI0
aI0
aI0
aI0
aI0
aI0
aI0
aI0
aI0
aI0
aI0
aI0
aI0
aI0
aI0
aI0
aI0
aI0
aI0
aI0
aI0
aI0
aI0
aI0
aI0
aI0
aI0
aI0
aI0
aI0
aI0
aI0
aI0
aI0
aI0
aI0
aI0
aI0
aI0
aI0
aI0
aI0
aI0
aI0
aI0
aI0
aI0
aI0
aI0
aI0
aI0
aI0
aI0
aI0
aI0
aI0
aI0
aI0
aI0
aI0
aI0
aI0
aI0
aI0
aI0
aI0
aI0
aI0
aI0
aI0
aI0
aI0
aI0
aI0
aI0
aI0
aI0
aI0
aI0
aI0
aI0
aI0
aI0
aI0
aI0
asg19
F0
sg20
I01
sg21
g22
sg23
g24
sg25
F100
sg26
S't91x@wPc39cCCcF=7F<nMbdC5%NUYqoB'
p499
sg28
S'Error at Chromosome_0|math range error'
p500
ssg30
Nsg31
I0
sg32
(lp501
g1
(g34
g3
NtRp502
(dp503
g37
F0.10000000000000001
sg38
(lp504
S'0'
aS'1'
asg40
(lp505
S'0'
aS'1'
aS'0'
aS'1'
aS'0'
aS'0'
aS'0'
aS'1'
aS'1'
aS'1'
aS'1'
aS'0'
aS'0'
aS'1'
aS'0'
aS'1'
aS'0'
aS'1'
aS'0'
aS'0'
aS'0'
aS'1'
aS'0'
aS'1'
aS'0'
aS'0'
aS'0'
aS'1'
aS'0'
aS'0'
asbasg42
g43
sbag1
(g9
g3
NtRp506
(dp507
g12
(dp508
g14
Nsg15
F100
sg16
F100
sg17
(lp509
F-8.2384058440442356
aF39313.637602958363
aF1.3043045862358962
aF11
aI0
aF0.89426853368974391
aF40592.145563739068
aF2.4463520074491623
aI0
aI0
aI30
aI0
aI0
aI0
aI0
aI0
aI0
aI0
aI0
aI0
aI0
aI0
aI0
aI0
aI0
aI0
aI0
aI0
aI0
aI0
aI0
aI0
aI0
aI0
aI0
aI0
aI0
aI0
aI0
aI0
aI0
aI0
aI0
aI0
aI0
aI0
aI0
aI0
aI0
aI0
aI0
aI0
aI0
aI0
aI0
aI0
aI0
aI0
aI0
aI0
aI0
aI0
aI0
aI0
aI0
aI0
aI0
aI0
aI0
aI0
aI0
aI0
aI0
aI0
aI0
aI0
aI0
aI0
aI0
aI0
aI0
aI0
aI0
aI0
aI0
aI0
aI0
aI0
aI0
aI0
aI0
aI0
aI0
aI0
aI0
aI0
aI0
aI0
aI0
aI0
aI0
aI0
aI0
aI0
aI0
aI0
aI0
aI0
aI0
aI0
aI0
aI0
aI0
aI0
aI0
aI0
aI0
aI0
aI0
aI0
aI0
aI0
aI0
aI0
aI0
aI0
aI0
aI0
aI0
aI0
aI0
aI0
aI0
aI0
aI0
aI0
aI0
aI0
aI0
aI0
aI0
aI0
aI0
aI0
aI0
aI0
aI0
aI0
aI0
aI0
aI0
aI0
aI0
aI0
aI0
aI0
aI0
aI0
aI0
aI0
aI0
aI0
aI0
aI0
aI0
aI0
aI0
aI0
aI0
aI0
aI0
aI0
aI0
aI0
aI0
aI0
aI0
aI0
aI0
aI0
aI0
aI0
aI0
aI0
aI0
aI0
aI0
aI0
aI0
aI0
aI0
aI0
aI0
aI0
aI0
aI0
aI0
aI0
aI0
aI0
asg19
F0
sg20
I01
sg21
g22
sg23
g24
sg25
F100
sg26
S'FAps3Dv=BzMt#Jzj&o$cyl?=3xkEd7Jc'
p510
sg28
S'Error at Chromosome_0|math range error'
p511
ssg30
Nsg31
I0
sg32
(lp512
g1
(g34
g3
NtRp513
(dp514
g37
F0.10000000000000001
sg38
(lp515
S'0'
aS'1'
asg40
(lp516
S'1'
aS'1'
aS'0'
aS'0'
aS'0'
aS'1'
aS'1'
aS'1'
aS'1'
aS'1'
aS'0'
aS'0'
aS'1'
aS'1'
aS'0'
aS'1'
aS'0'
aS'1'
aS'0'
aS'0'
aS'0'
aS'0'
aS'0'
aS'1'
aS'1'
aS'1'
aS'0'
aS'0'
aS'0'
aS'0'
asbasg42
g43
sbag1
(g9
g3
NtRp517
(dp518
g12
(dp519
g14
Nsg15
F100
sg16
F100
sg17
(lp520
F37.004994770633488
aF1.7021380249658704e+29
aF4.052356840206249e+72
aF51
aF1
aF81
aF3.4188356148813721e+30
aI0
aF1.5430806348152437
aF1
aF242582617.70489514
aF1.1769263341851e+17
aF0
aI0
aI0
aI0
aI0
aI0
aI0
aI0
aI0
aI0
aI0
aI0
aI0
aI0
aI0
aI0
aI0
aI0
aI0
aI0
aI0
aI0
aI0
aI0
aI0
aI0
aI0
aI0
aI0
aI0
aI0
aI0
aI0
aI0
aI0
aI0
aI0
aI0
aI0
aI0
aI0
aI0
aI0
aI0
aI0
aI0
aI0
aI0
aI0
aI0
aI0
aI0
aI0
aI0
aI0
aI0
aI0
aI0
aI0
aI0
aI0
aI0
aI0
aI0
aI0
aI0
aI0
aI0
aI0
aI0
aI0
aI0
aI0
aI0
aI0
aI0
aI0
aI0
aI0
aI0
aI0
aI0
aI0
aI0
aI0
aI0
aI0
aI0
aI0
aI0
aI0
aI0
aI0
aI0
aI0
aI0
aI0
aI0
aI0
aI0
aI0
aI0
aI0
aI0
aI0
aI0
aI0
aI0
aI0
aI0
aI0
aI0
aI0
aI0
aI0
aI0
aI0
aI0
aI0
aI0
aI0
aI0
aI0
aI0
aI0
aI0
aI0
aI0
aI0
aI0
aI0
aI0
aI0
aI0
aI0
aI0
aI0
aI0
aI0
aI0
aI0
aI0
aI0
aI0
aI0
aI0
aI0
aI0
aI0
aI0
aI0
aI0
aI0
aI0
aI0
aI0
aI0
aI0
aI0
aI0
aI0
aI0
aI0
aI0
aI0
aI0
aI0
aI0
aI0
aI0
aI0
aI0
aI0
aI0
aI0
aI0
aI0
aI0
aI0
aI0
aI0
aI0
aI0
aI0
aI0
aI0
aI0
aI0
asg19
F0
sg20
I01
sg21
g22
sg23
g24
sg25
F100
sg26
S'IF3@2>>kVJ5@D9fJ?wL6V%CHPHaMtVQD'
p521
sg28
S'Error at Chromosome_0|math range error'
p522
ssg30
Nsg31
I0
sg32
(lp523
g1
(g34
g3
NtRp524
(dp525
g37
F0.10000000000000001
sg38
(lp526
S'0'
aS'1'
asg40
(lp527
S'0'
aS'0'
aS'0'
aS'1'
aS'1'
aS'0'
aS'0'
aS'0'
aS'0'
aS'0'
aS'1'
aS'1'
aS'1'
aS'0'
aS'0'
aS'1'
aS'1'
aS'1'
aS'0'
aS'0'
aS'0'
aS'1'
aS'1'
aS'0'
aS'1'
aS'0'
aS'1'
aS'0'
aS'0'
aS'0'
asbasg42
g43
sbag1
(g9
g3
NtRp528
(dp529
g12
(dp530
g14
Nsg15
F100
sg16
F100
sg17
(lp531
F7.0006773644720912
aF43
aF242582627.70489514
aF4.052356840206249e+72
aF1.5430806348152437
aF-5.5789362018998645e-10
aI91
aI67
aI10
aI0
aF39.512614667151396
aF723128532145.73755
aI0
aI0
aI0
aF-1
aF1.2577193354595834e+30
aI10
aI0
aI0
aF6.1020164715892042e+38
aF1.5430806348152437
aI0
aI0
aI0
aF51530.722096349724
aI0
aI0
aI0
aI0
aI0
aI0
aI0
aI0
aI0
aI0
aI0
aI0
aI0
aI0
aI0
aI0
aI0
aI0
aI0
aI0
aI0
aI0
aI0
aI0
aI0
aI0
aI0
aI0
aI0
aI0
aI0
aI0
aI0
aI0
aI0
aI0
aI0
aI0
aI0
aI0
aI0
aI0
aI0
aI0
aI0
aI0
aI0
aI0
aI0
aI0
aI0
aI0
aI0
aI0
aI0
aI0
aI0
aI0
aI0
aI0
aI0
aI0
aI0
aI0
aI0
aI0
aI0
aI0
aI0
aI0
aI0
aI0
aI0
aI0
aI0
aI0
aI0
aI0
aI0
aI0
aI0
aI0
aI0
aI0
aI0
aI0
aI0
aI0
aI0
aI0
aI0
aI0
aI0
aI0
aI0
aI0
aI0
aI0
aI0
aI0
aI0
aI0
aI0
aI0
aI0
aI0
aI0
aI0
aI0
aI0
aI0
aI0
aI0
aI0
aI0
aI0
aI0
aI0
aI0
aI0
aI0
aI0
aI0
aI0
aI0
aI0
aI0
aI0
aI0
aI0
aI0
aI0
aI0
aI0
aI0
aI0
aI0
aI0
aI0
aI0
aI0
aI0
aI0
aI0
aI0
aI0
aI0
aI0
aI0
aI0
aI0
aI0
aI0
aI0
aI0
aI0
aI0
aI0
aI0
aI0
aI0
aI0
aI0
aI0
aI0
aI0
aI0
aI0
aI0
aI0
aI0
aI0
aI0
aI0
asg19
F0
sg20
I01
sg21
g22
sg23
g24
sg25
F100
sg26
S'nQOwgAN&3x2JCajlDRYebyXX&qhEfCLM'
p532
sg28
S'Error at Chromosome_0|math range error'
p533
ssg30
Nsg31
I0
sg32
(lp534
g1
(g34
g3
NtRp535
(dp536
g37
F0.10000000000000001
sg38
(lp537
S'0'
aS'1'
asg40
(lp538
S'0'
aS'1'
aS'1'
aS'1'
aS'1'
aS'0'
aS'1'
aS'1'
aS'1'
aS'0'
aS'0'
aS'1'
aS'1'
aS'0'
aS'1'
aS'1'
aS'1'
aS'0'
aS'0'
aS'1'
aS'1'
aS'0'
aS'0'
aS'1'
aS'0'
aS'1'
aS'0'
aS'0'
aS'0'
aS'0'
asbasg42
g43
sbag1
(g9
g3
NtRp539
(dp540
g12
(dp541
g14
Nsg15
F100
sg16
F100
sg17
(lp542
F4.7149482105723973e+81
aF11048.232920103323
aF4.052356840206249e+72
aI0
aI0
aF103655.96640331318
aF133195745713.73212
aI0
aI0
aF29937.070865949761
aF5.7100369490784212e+25
aF3.3274825590778879e+26
aF1
aI0
aI0
aI0
aF1.5430806348152437
aI0
aI0
aI0
aI0
aI0
aI0
aI0
aI0
aI0
aI0
aI0
aI0
aI0
aI0
aI0
aI0
aI0
aI0
aI0
aI0
aI0
aI0
aI0
aI0
aI0
aI0
aI0
aI0
aI0
aI0
aI0
aI0
aI0
aI0
aI0
aI0
aI0
aI0
aI0
aI0
aI0
aI0
aI0
aI0
aI0
aI0
aI0
aI0
aI0
aI0
aI0
aI0
aI0
aI0
aI0
aI0
aI0
aI0
aI0
aI0
aI0
aI0
aI0
aI0
aI0
aI0
aI0
aI0
aI0
aI0
aI0
aI0
aI0
aI0
aI0
aI0
aI0
aI0
aI0
aI0
aI0
aI0
aI0
aI0
aI0
aI0
aI0
aI0
aI0
aI0
aI0
aI0
aI0
aI0
aI0
aI0
aI0
aI0
aI0
aI0
aI0
aI0
aI0
aI0
aI0
aI0
aI0
aI0
aI0
aI0
aI0
aI0
aI0
aI0
aI0
aI0
aI0
aI0
aI0
aI0
aI0
aI0
aI0
aI0
aI0
aI0
aI0
aI0
aI0
aI0
aI0
aI0
aI0
aI0
aI0
aI0
aI0
aI0
aI0
aI0
aI0
aI0
aI0
aI0
aI0
aI0
aI0
aI0
aI0
aI0
aI0
aI0
aI0
aI0
aI0
aI0
aI0
aI0
aI0
aI0
aI0
aI0
aI0
aI0
aI0
aI0
aI0
aI0
aI0
aI0
aI0
aI0
aI0
aI0
aI0
aI0
aI0
aI0
aI0
aI0
aI0
aI0
aI0
asg19
F0
sg20
I01
sg21
g22
sg23
g24
sg25
F100
sg26
S'JywNqRjz3s>jxrdX3TIfUuScUoqd4EiU'
p543
sg28
S'Error at Chromosome_0|math range error'
p544
ssg30
Nsg31
I0
sg32
(lp545
g1
(g34
g3
NtRp546
(dp547
g37
F0.10000000000000001
sg38
(lp548
S'0'
aS'1'
asg40
(lp549
S'1'
aS'0'
aS'0'
aS'1'
aS'1'
aS'0'
aS'0'
aS'1'
aS'1'
aS'1'
aS'1'
aS'1'
aS'0'
aS'0'
aS'1'
aS'1'
aS'0'
aS'1'
aS'0'
aS'0'
aS'0'
aS'1'
aS'0'
aS'1'
aS'0'
aS'1'
aS'1'
aS'0'
aS'0'
aS'0'
asbasg42
g43
sbag1
(g9
g3
NtRp550
(dp551
g12
(dp552
g14
Nsg15
F100
sg16
F100
sg17
(lp553
F167.87857111583605
aF5343237290922.2314
aF1.1769263341851008e+17
aF5.7100369490784212e+25
aF167.87857252384407
aF55.246298555787718
aF0.99999999944210638
aF1.5430806348152437
aF2.4463520074491623
aI0
aF1.1509801878058601
aF1.5430806348152437
aI0
aI0
aI0
aF5.8163792453876901
aI0
aI0
aI0
aI0
aI0
aI0
aI0
aI0
aI0
aI0
aI0
aI0
aI0
aI0
aI0
aI0
aI0
aI0
aI0
aI0
aI0
aI0
aI0
aI0
aI0
aI0
aI0
aI0
aI0
aI0
aI0
aI0
aI0
aI0
aI0
aI0
aI0
aI0
aI0
aI0
aI0
aI0
aI0
aI0
aI0
aI0
aI0
aI0
aI0
aI0
aI0
aI0
aI0
aI0
aI0
aI0
aI0
aI0
aI0
aI0
aI0
aI0
aI0
aI0
aI0
aI0
aI0
aI0
aI0
aI0
aI0
aI0
aI0
aI0
aI0
aI0
aI0
aI0
aI0
aI0
aI0
aI0
aI0
aI0
aI0
aI0
aI0
aI0
aI0
aI0
aI0
aI0
aI0
aI0
aI0
aI0
aI0
aI0
aI0
aI0
aI0
aI0
aI0
aI0
aI0
aI0
aI0
aI0
aI0
aI0
aI0
aI0
aI0
aI0
aI0
aI0
aI0
aI0
aI0
aI0
aI0
aI0
aI0
aI0
aI0
aI0
aI0
aI0
aI0
aI0
aI0
aI0
aI0
aI0
aI0
aI0
aI0
aI0
aI0
aI0
aI0
aI0
aI0
aI0
aI0
aI0
aI0
aI0
aI0
aI0
aI0
aI0
aI0
aI0
aI0
aI0
aI0
aI0
aI0
aI0
aI0
aI0
aI0
aI0
aI0
aI0
aI0
aI0
aI0
aI0
aI0
aI0
aI0
aI0
aI0
aI0
aI0
aI0
aI0
aI0
aI0
aI0
aI0
aI0
asg19
F0
sg20
I01
sg21
g22
sg23
g24
sg25
F100
sg26
S'GzrcvSINCV3Je2GgCmVdH6yH?MddkgSg'
p554
sg28
S'Error at Chromosome_0|math range error'
p555
ssg30
Nsg31
I0
sg32
(lp556
g1
(g34
g3
NtRp557
(dp558
g37
F0.10000000000000001
sg38
(lp559
S'0'
aS'1'
asg40
(lp560
S'1'
aS'1'
aS'0'
aS'1'
aS'0'
aS'1'
aS'0'
aS'1'
aS'1'
aS'1'
aS'0'
aS'1'
aS'0'
aS'1'
aS'0'
aS'1'
aS'0'
aS'1'
aS'1'
aS'0'
aS'1'
aS'1'
aS'0'
aS'0'
aS'1'
aS'0'
aS'0'
aS'1'
aS'0'
aS'0'
asbasg42
g43
sbag1
(g9
g3
NtRp561
(dp562
g12
(dp563
g14
Nsg15
F100
sg16
F100
sg17
(lp564
F2.6696562771041231e+87
aI70
aF5.8163792453876901
aI10
aI-1
aF1.9967407658314764
aF5.4463520074491623
aF2.4463520074491623
aF39.816379245387694
aI28
aF0.99999999944210638
aF0
aI60
aI0
aI0
aI-8
aI0
aI0
aI0
aI0
aI0
aI0
aI0
aI0
aI0
aI0
aI0
aI0
aI0
aI0
aI0
aI0
aI0
aI0
aI0
aI0
aI0
aI0
aI0
aI0
aI0
aI0
aI0
aI0
aI0
aI0
aI0
aI0
aI0
aI0
aI0
aI0
aI0
aI0
aI0
aI0
aI0
aI0
aI0
aI0
aI0
aI0
aI0
aI0
aI0
aI0
aI0
aI0
aI0
aI0
aI0
aI0
aI0
aI0
aI0
aI0
aI0
aI0
aI0
aI0
aI0
aI0
aI0
aI0
aI0
aI0
aI0
aI0
aI0
aI0
aI0
aI0
aI0
aI0
aI0
aI0
aI0
aI0
aI0
aI0
aI0
aI0
aI0
aI0
aI0
aI0
aI0
aI0
aI0
aI0
aI0
aI0
aI0
aI0
aI0
aI0
aI0
aI0
aI0
aI0
aI0
aI0
aI0
aI0
aI0
aI0
aI0
aI0
aI0
aI0
aI0
aI0
aI0
aI0
aI0
aI0
aI0
aI0
aI0
aI0
aI0
aI0
aI0
aI0
aI0
aI0
aI0
aI0
aI0
aI0
aI0
aI0
aI0
aI0
aI0
aI0
aI0
aI0
aI0
aI0
aI0
aI0
aI0
aI0
aI0
aI0
aI0
aI0
aI0
aI0
aI0
aI0
aI0
aI0
aI0
aI0
aI0
aI0
aI0
aI0
aI0
aI0
aI0
aI0
aI0
aI0
aI0
aI0
aI0
aI0
aI0
aI0
aI0
aI0
aI0
aI0
aI0
aI0
aI0
aI0
asg19
F0
sg20
I01
sg21
g22
sg23
g24
sg25
F100
sg26
S'Tgx?J>n&tJIZcR58kSRo4HGXg8yXtbRk'
p565
sg28
S'Error at Chromosome_0|math range error'
p566
ssg30
Nsg31
I0
sg32
(lp567
g1
(g34
g3
NtRp568
(dp569
g37
F0.10000000000000001
sg38
(lp570
S'0'
aS'1'
asg40
(lp571
S'1'
aS'0'
aS'0'
aS'0'
aS'0'
aS'0'
aS'1'
aS'0'
aS'1'
aS'0'
aS'0'
aS'0'
aS'0'
aS'1'
aS'1'
aS'1'
aS'1'
aS'1'
aS'0'
aS'1'
aS'0'
aS'0'
aS'0'
aS'1'
aS'0'
aS'1'
aS'0'
aS'1'
aS'0'
aS'0'
asbasg42
g43
sbag1
(g9
g3
NtRp572
(dp573
g12
(dp574
g14
Nsg15
F100
sg16
F100
sg17
(lp575
F242582689.70489514
aF97864804714.419388
aF29494.59459375923
aF29494.59459375923
aF5343237290762.2314
aF11877.018081380269
aF0.64201499201199974
aF29919.343124066672
aI0
aI0
aF29937.070865949761
aF1.427280071943495
aF5.3478809104320522e+18
aF11022.232920103323
aI0
aF1.4415580723239825
aF1
aF1
aF11013.232920103323
aI0
aF0
aI0
aI0
aI0
aI0
aI0
aI0
aI0
aI0
aI0
aI0
aI0
aI0
aI0
aI0
aI0
aI0
aI0
aI0
aI0
aI0
aI0
aI0
aI0
aI0
aI0
aI0
aI0
aI0
aI0
aI0
aI0
aI0
aI0
aI0
aI0
aI0
aI0
aI0
aI0
aI0
aI0
aI0
aI0
aI0
aI0
aI0
aI0
aI0
aI0
aI0
aI0
aI0
aI0
aI0
aI0
aI0
aI0
aI0
aI0
aI0
aI0
aI0
aI0
aI0
aI0
aI0
aI0
aI0
aI0
aI0
aI0
aI0
aI0
aI0
aI0
aI0
aI0
aI0
aI0
aI0
aI0
aI0
aI0
aI0
aI0
aI0
aI0
aI0
aI0
aI0
aI0
aI0
aI0
aI0
aI0
aI0
aI0
aI0
aI0
aI0
aI0
aI0
aI0
aI0
aI0
aI0
aI0
aI0
aI0
aI0
aI0
aI0
aI0
aI0
aI0
aI0
aI0
aI0
aI0
aI0
aI0
aI0
aI0
aI0
aI0
aI0
aI0
aI0
aI0
aI0
aI0
aI0
aI0
aI0
aI0
aI0
aI0
aI0
aI0
aI0
aI0
aI0
aI0
aI0
aI0
aI0
aI0
aI0
aI0
aI0
aI0
aI0
aI0
aI0
aI0
aI0
aI0
aI0
aI0
aI0
aI0
aI0
aI0
aI0
aI0
aI0
aI0
aI0
aI0
aI0
aI0
aI0
aI0
aI0
aI0
aI0
aI0
aI0
aI0
asg19
F0
sg20
I01
sg21
g22
sg23
g24
sg25
F100
sg26
S'3kb#g9gx9@lMuQnNwJkFVnxnxvu56SKB'
p576
sg28
S'Error at Chromosome_0|math range error'
p577
ssg30
Nsg31
I0
sg32
(lp578
g1
(g34
g3
NtRp579
(dp580
g37
F0.10000000000000001
sg38
(lp581
S'0'
aS'1'
asg40
(lp582
S'0'
aS'0'
aS'1'
aS'0'
aS'1'
aS'0'
aS'1'
aS'0'
aS'0'
aS'0'
aS'0'
aS'1'
aS'0'
aS'0'
aS'0'
aS'0'
aS'1'
aS'1'
aS'0'
aS'1'
aS'1'
aS'0'
aS'0'
aS'1'
aS'1'
aS'1'
aS'0'
aS'0'
aS'0'
aS'0'
asbasg42
g43
sbag1
(g9
g3
NtRp583
(dp584
g12
(dp585
g14
Nsg15
F100
sg16
F100
sg17
(lp586
F29947.07084924807
aF5.2590848795670121e+68
aF19.91862274488404
aF29957.070865949761
aF2.4463520074491623
aF3697738.8338995399
aI0
aI0
aI0
aF1
aF1
aI0
aI0
aI0
aI0
aI0
aI0
aI0
aI0
aI0
aI0
aI0
aI0
aI0
aI0
aI0
aI0
aI0
aI0
aI0
aI0
aI0
aI0
aI0
aI0
aI0
aI0
aI0
aI0
aI0
aI0
aI0
aI0
aI0
aI0
aI0
aI0
aI0
aI0
aI0
aI0
aI0
aI0
aI0
aI0
aI0
aI0
aI0
aI0
aI0
aI0
aI0
aI0
aI0
aI0
aI0
aI0
aI0
aI0
aI0
aI0
aI0
aI0
aI0
aI0
aI0
aI0
aI0
aI0
aI0
aI0
aI0
aI0
aI0
aI0
aI0
aI0
aI0
aI0
aI0
aI0
aI0
aI0
aI0
aI0
aI0
aI0
aI0
aI0
aI0
aI0
aI0
aI0
aI0
aI0
aI0
aI0
aI0
aI0
aI0
aI0
aI0
aI0
aI0
aI0
aI0
aI0
aI0
aI0
aI0
aI0
aI0
aI0
aI0
aI0
aI0
aI0
aI0
aI0
aI0
aI0
aI0
aI0
aI0
aI0
aI0
aI0
aI0
aI0
aI0
aI0
aI0
aI0
aI0
aI0
aI0
aI0
aI0
aI0
aI0
aI0
aI0
aI0
aI0
aI0
aI0
aI0
aI0
aI0
aI0
aI0
aI0
aI0
aI0
aI0
aI0
aI0
aI0
aI0
aI0
aI0
aI0
aI0
aI0
aI0
aI0
aI0
aI0
aI0
aI0
aI0
aI0
aI0
aI0
aI0
aI0
aI0
aI0
aI0
aI0
aI0
aI0
aI0
aI0
aI0
aI0
aI0
aI0
aI0
aI0
asg19
F0
sg20
I01
sg21
g22
sg23
g24
sg25
F100
sg26
S'QYd<HeKRE8sqfWL#S>>hAvCBwvEEVp&f'
p587
sg28
S'Error at Chromosome_0|math range error'
p588
ssg30
Nsg31
I0
sg32
(lp589
g1
(g34
g3
NtRp590
(dp591
g37
F0.10000000000000001
sg38
(lp592
S'0'
aS'1'
asg40
(lp593
S'1'
aS'0'
aS'0'
aS'0'
aS'0'
aS'1'
aS'1'
aS'1'
aS'0'
aS'0'
aS'0'
aS'0'
aS'1'
aS'0'
aS'1'
aS'1'
aS'0'
aS'0'
aS'0'
aS'0'
aS'1'
aS'0'
aS'0'
aS'1'
aS'0'
aS'0'
aS'1'
aS'0'
aS'0'
aS'0'
asbasg42
g43
sbag1
(g9
g3
NtRp594
(dp595
g12
(dp596
g14
Nsg15
F100
sg16
F100
sg17
(lp597
F0.2554521780208967
aF2.4462764748905759
aF50
aF30007.070865949761
aF1
aF0.91263657596321157
aF2.4430487496686122
aF2.405062237993584
aF2.4463520074491623
aF1
aF-0.95974603171341755
aF1.3211277398426469
aI0
aI0
aI0
aF-0.96117006287134388
aI0
aI0
aI0
aI0
aF1.3801759330118384
aF0
aI0
aI0
aI0
aI0
aI0
aI0
aI0
aI0
aI0
aI0
aI0
aI0
aI0
aI0
aI0
aI0
aI0
aI0
aI0
aI0
aI0
aI0
aI0
aI0
aI0
aI0
aI0
aI0
aI0
aI0
aI0
aI0
aI0
aI0
aI0
aI0
aI0
aI0
aI0
aI0
aI0
aI0
aI0
aI0
aI0
aI0
aI0
aI0
aI0
aI0
aI0
aI0
aI0
aI0
aI0
aI0
aI0
aI0
aI0
aI0
aI0
aI0
aI0
aI0
aI0
aI0
aI0
aI0
aI0
aI0
aI0
aI0
aI0
aI0
aI0
aI0
aI0
aI0
aI0
aI0
aI0
aI0
aI0
aI0
aI0
aI0
aI0
aI0
aI0
aI0
aI0
aI0
aI0
aI0
aI0
aI0
aI0
aI0
aI0
aI0
aI0
aI0
aI0
aI0
aI0
aI0
aI0
aI0
aI0
aI0
aI0
aI0
aI0
aI0
aI0
aI0
aI0
aI0
aI0
aI0
aI0
aI0
aI0
aI0
aI0
aI0
aI0
aI0
aI0
aI0
aI0
aI0
aI0
aI0
aI0
aI0
aI0
aI0
aI0
aI0
aI0
aI0
aI0
aI0
aI0
aI0
aI0
aI0
aI0
aI0
aI0
aI0
aI0
aI0
aI0
aI0
aI0
aI0
aI0
aI0
aI0
aI0
aI0
aI0
aI0
aI0
aI0
aI0
aI0
aI0
aI0
aI0
aI0
aI0
aI0
aI0
aI0
aI0
asg19
F0
sg20
I01
sg21
g22
sg23
g24
sg25
F100
sg26
S'$$JvwdIQaBcvZ516SjEIyYOdftrUgKpU'
p598
sg28
S'Error at Chromosome_0|math range error'
p599
ssg30
Nsg31
I0
sg32
(lp600
g1
(g34
g3
NtRp601
(dp602
g37
F0.10000000000000001
sg38
(lp603
S'0'
aS'1'
asg40
(lp604
S'1'
aS'1'
aS'0'
aS'0'
aS'0'
aS'1'
aS'0'
aS'0'
aS'0'
aS'0'
aS'0'
aS'1'
aS'0'
aS'1'
aS'1'
aS'1'
aS'0'
aS'1'
aS'1'
aS'0'
aS'0'
aS'1'
aS'0'
aS'1'
aS'0'
aS'1'
aS'1'
aS'0'
aS'0'
aS'0'
asbasg42
g43
sbag1
(g9
g3
NtRp605
(dp606
g12
(dp607
g14
Nsg15
F100
sg16
F100
sg17
(lp608
F-0.2276088089001326
aF26.26612994023753
aF4.052356840206249e+72
aF10
aI0
aF25.512614667151404
aF38
aF4.052356840206249e+72
aF-2.4569193651847563
aI0
aF11.000065456711766
aF2.4463520074491623
aF1
aI0
aI0
aI0
aI0
aI0
aI0
aF1
aI0
aI0
aI0
aI0
aI0
aI0
aI0
aI0
aI0
aI0
aI0
aI0
aI0
aI0
aI0
aI0
aI0
aI0
aI0
aI0
aI0
aI0
aI0
aI0
aI0
aI0
aI0
aI0
aI0
aI0
aI0
aI0
aI0
aI0
aI0
aI0
aI0
aI0
aI0
aI0
aI0
aI0
aI0
aI0
aI0
aI0
aI0
aI0
aI0
aI0
aI0
aI0
aI0
aI0
aI0
aI0
aI0
aI0
aI0
aI0
aI0
aI0
aI0
aI0
aI0
aI0
aI0
aI0
aI0
aI0
aI0
aI0
aI0
aI0
aI0
aI0
aI0
aI0
aI0
aI0
aI0
aI0
aI0
aI0
aI0
aI0
aI0
aI0
aI0
aI0
aI0
aI0
aI0
aI0
aI0
aI0
aI0
aI0
aI0
aI0
aI0
aI0
aI0
aI0
aI0
aI0
aI0
aI0
aI0
aI0
aI0
aI0
aI0
aI0
aI0
aI0
aI0
aI0
aI0
aI0
aI0
aI0
aI0
aI0
aI0
aI0
aI0
aI0
aI0
aI0
aI0
aI0
aI0
aI0
aI0
aI0
aI0
aI0
aI0
aI0
aI0
aI0
aI0
aI0
aI0
aI0
aI0
aI0
aI0
aI0
aI0
aI0
aI0
aI0
aI0
aI0
aI0
aI0
aI0
aI0
aI0
aI0
aI0
aI0
aI0
aI0
aI0
aI0
aI0
aI0
aI0
aI0
aI0
aI0
aI0
aI0
aI0
aI0
aI0
aI0
asg19
F0
sg20
I01
sg21
g22
sg23
g24
sg25
F100
sg26
S'ZW=EiP9R?GhQjPZRC5XslT6Iys?1#y85'
p609
sg28
S'Error at Chromosome_0|math range error'
p610
ssg30
Nsg31
I0
sg32
(lp611
g1
(g34
g3
NtRp612
(dp613
g37
F0.10000000000000001
sg38
(lp614
S'0'
aS'1'
asg40
(lp615
S'1'
aS'1'
aS'1'
aS'0'
aS'0'
aS'1'
aS'1'
aS'1'
aS'0'
aS'1'
aS'1'
aS'1'
aS'0'
aS'1'
aS'1'
aS'0'
aS'1'
aS'1'
aS'1'
aS'1'
aS'1'
aS'0'
aS'0'
aS'0'
aS'0'
aS'1'
aS'0'
aS'0'
aS'0'
aS'0'
asbasg42
g43
sbag1
(g9
g3
NtRp616
(dp617
g12
(dp618
g14
Nsg15
F100
sg16
F100
sg17
(lp619
F-6.4569193651847563
aF6973.9248212311104
aF5.8163792453876901
aI0
aI0
aF-0.45691936518475629
aF1.7383809899165534
aI0
aI0
aI10
aF1.552148966985032e+26
aF11012.232920103323
aI20
aF0
aF0
aF2.592352764293536e+21
aF2.4463520074491623
aF-1.7615941576870282
aI0
aI0
aI0
aI0
aI0
aI0
aI0
aI0
aI0
aI0
aI0
aI0
aI0
aI0
aI0
aI0
aI0
aI0
aI0
aI0
aI0
aI0
aI0
aI0
aI0
aI0
aI0
aI0
aI0
aI0
aI0
aI0
aI0
aI0
aI0
aI0
aI0
aI0
aI0
aI0
aI0
aI0
aI0
aI0
aI0
aI0
aI0
aI0
aI0
aI0
aI0
aI0
aI0
aI0
aI0
aI0
aI0
aI0
aI0
aI0
aI0
aI0
aI0
aI0
aI0
aI0
aI0
aI0
aI0
aI0
aI0
aI0
aI0
aI0
aI0
aI0
aI0
aI0
aI0
aI0
aI0
aI0
aI0
aI0
aI0
aI0
aI0
aI0
aI0
aI0
aI0
aI0
aI0
aI0
aI0
aI0
aI0
aI0
aI0
aI0
aI0
aI0
aI0
aI0
aI0
aI0
aI0
aI0
aI0
aI0
aI0
aI0
aI0
aI0
aI0
aI0
aI0
aI0
aI0
aI0
aI0
aI0
aI0
aI0
aI0
aI0
aI0
aI0
aI0
aI0
aI0
aI0
aI0
aI0
aI0
aI0
aI0
aI0
aI0
aI0
aI0
aI0
aI0
aI0
aI0
aI0
aI0
aI0
aI0
aI0
aI0
aI0
aI0
aI0
aI0
aI0
aI0
aI0
aI0
aI0
aI0
aI0
aI0
aI0
aI0
aI0
aI0
aI0
aI0
aI0
aI0
aI0
aI0
aI0
aI0
aI0
aI0
aI0
aI0
aI0
aI0
aI0
asg19
F0
sg20
I01
sg21
g22
sg23
g24
sg25
F100
sg26
S's%Aeo5XjIuI%nS%b5qiWhsHabz&xPA7G'
p620
sg28
S'Error at Chromosome_0|math range error'
p621
ssg30
Nsg31
I0
sg32
(lp622
g1
(g34
g3
NtRp623
(dp624
g37
F0.10000000000000001
sg38
(lp625
S'0'
aS'1'
asg40
(lp626
S'0'
aS'1'
aS'1'
aS'0'
aS'0'
aS'0'
aS'1'
aS'0'
aS'0'
aS'1'
aS'1'
aS'1'
aS'0'
aS'1'
aS'1'
aS'0'
aS'0'
aS'0'
aS'1'
aS'0'
aS'1'
aS'0'
aS'1'
aS'1'
aS'0'
aS'1'
aS'0'
aS'1'
aS'0'
aS'0'
asbasg42
g43
sbag1
(g9
g3
NtRp627
(dp628
g12
(dp629
g14
Nsg15
F100
sg16
F100
sg17
(lp630
F2.592352764293536e+21
aF2.592352764293536e+21
aF1792456432.0657959
aI0
aI0
aI0
aF1.1511285919839405
aF67671.421479671844
aF4.052356840206249e+72
aF1.5430806348152437
aI0
aI0
aF-5
aF1
aF1.5430806348152437
aI0
aI0
aI-4
aF1
aI0
aI0
aI0
aI0
aI0
aI0
aI0
aI0
aI0
aI0
aI0
aI0
aI0
aI0
aI0
aI0
aI0
aI0
aI0
aI0
aI0
aI0
aI0
aI0
aI0
aI0
aI0
aI0
aI0
aI0
aI0
aI0
aI0
aI0
aI0
aI0
aI0
aI0
aI0
aI0
aI0
aI0
aI0
aI0
aI0
aI0
aI0
aI0
aI0
aI0
aI0
aI0
aI0
aI0
aI0
aI0
aI0
aI0
aI0
aI0
aI0
aI0
aI0
aI0
aI0
aI0
aI0
aI0
aI0
aI0
aI0
aI0
aI0
aI0
aI0
aI0
aI0
aI0
aI0
aI0
aI0
aI0
aI0
aI0
aI0
aI0
aI0
aI0
aI0
aI0
aI0
aI0
aI0
aI0
aI0
aI0
aI0
aI0
aI0
aI0
aI0
aI0
aI0
aI0
aI0
aI0
aI0
aI0
aI0
aI0
aI0
aI0
aI0
aI0
aI0
aI0
aI0
aI0
aI0
aI0
aI0
aI0
aI0
aI0
aI0
aI0
aI0
aI0
aI0
aI0
aI0
aI0
aI0
aI0
aI0
aI0
aI0
aI0
aI0
aI0
aI0
aI0
aI0
aI0
aI0
aI0
aI0
aI0
aI0
aI0
aI0
aI0
aI0
aI0
aI0
aI0
aI0
aI0
aI0
aI0
aI0
aI0
aI0
aI0
aI0
aI0
aI0
aI0
aI0
aI0
aI0
aI0
aI0
aI0
aI0
aI0
aI0
aI0
aI0
aI0
aI0
asg19
F0
sg20
I01
sg21
g22
sg23
g24
sg25
F100
sg26
S'T9qe$M@Gq#11@NLflcuS%fHbrKaxJE?t'
p631
sg28
S'Error at Chromosome_0|math range error'
p632
ssg30
Nsg31
I0
sg32
(lp633
g1
(g34
g3
NtRp634
(dp635
g37
F0.10000000000000001
sg38
(lp636
S'0'
aS'1'
asg40
(lp637
S'1'
aS'1'
aS'0'
aS'0'
aS'0'
aS'0'
aS'0'
aS'0'
aS'0'
aS'0'
aS'0'
aS'1'
aS'1'
aS'1'
aS'1'
aS'1'
aS'1'
aS'0'
aS'0'
aS'0'
aS'1'
aS'0'
aS'0'
aS'0'
aS'1'
aS'1'
aS'1'
aS'0'
aS'0'
aS'0'
asbasg42
g43
sbag1
(g9
g3
NtRp638
(dp639
g12
(dp640
g14
Nsg15
F100
sg16
F100
sg17
(lp641
F-0.51261446153423418
aF31789.534278989755
aF1.5430806348152437
aF1
aI0
aF242582712.70489514
aF1.5430806348152437
aF6.2669563480430354e+19
aF0
aI0
aF21
aF1123691051.2776711
aF242582607.70489514
aF10
aI0
aF1.028553532011165
aF5.3624264315481148e+72
aF0
aI0
aI0
aF1.028553532011165
aF1
aI0
aI0
aI0
aF1
aI0
aI0
aI0
aI0
aI0
aI0
aI0
aI0
aI0
aI0
aI0
aI0
aI0
aI0
aI0
aI0
aI0
aI0
aI0
aI0
aI0
aI0
aI0
aI0
aI0
aI0
aI0
aI0
aI0
aI0
aI0
aI0
aI0
aI0
aI0
aI0
aI0
aI0
aI0
aI0
aI0
aI0
aI0
aI0
aI0
aI0
aI0
aI0
aI0
aI0
aI0
aI0
aI0
aI0
aI0
aI0
aI0
aI0
aI0
aI0
aI0
aI0
aI0
aI0
aI0
aI0
aI0
aI0
aI0
aI0
aI0
aI0
aI0
aI0
aI0
aI0
aI0
aI0
aI0
aI0
aI0
aI0
aI0
aI0
aI0
aI0
aI0
aI0
aI0
aI0
aI0
aI0
aI0
aI0
aI0
aI0
aI0
aI0
aI0
aI0
aI0
aI0
aI0
aI0
aI0
aI0
aI0
aI0
aI0
aI0
aI0
aI0
aI0
aI0
aI0
aI0
aI0
aI0
aI0
aI0
aI0
aI0
aI0
aI0
aI0
aI0
aI0
aI0
aI0
aI0
aI0
aI0
aI0
aI0
aI0
aI0
aI0
aI0
aI0
aI0
aI0
aI0
aI0
aI0
aI0
aI0
aI0
aI0
aI0
aI0
aI0
aI0
aI0
aI0
aI0
aI0
aI0
aI0
aI0
aI0
aI0
aI0
aI0
aI0
aI0
aI0
aI0
aI0
aI0
aI0
aI0
aI0
aI0
aI0
asg19
F0
sg20
I01
sg21
g22
sg23
g24
sg25
F100
sg26
S'EbSZ9DNdasw<x3QZ1uppLG#7v$SW9Bc5'
p642
sg28
S'Error at Chromosome_0|math range error'
p643
ssg30
Nsg31
I0
sg32
(lp644
g1
(g34
g3
NtRp645
(dp646
g37
F0.10000000000000001
sg38
(lp647
S'0'
aS'1'
asg40
(lp648
S'1'
aS'1'
aS'1'
aS'0'
aS'0'
aS'0'
aS'0'
aS'1'
aS'1'
aS'0'
aS'1'
aS'0'
aS'0'
aS'1'
aS'0'
aS'0'
aS'1'
aS'0'
aS'1'
aS'0'
aS'1'
aS'1'
aS'1'
aS'1'
aS'1'
aS'1'
aS'1'
aS'1'
aS'0'
aS'0'
asbasg42
g43
sbag1
(g9
g3
NtRp649
(dp650
g12
(dp651
g14
Nsg15
F100
sg16
F100
sg17
(lp652
F-1.9950052293665155
aF35.543080633180168
aF1.3440585709080678e+43
aI50
aI20
aF6.7613389168358439e+237
aF4.052356840206249e+72
aI0
aI0
aI0
aF5.8163792453876901
aI0
aI0
aI0
aI0
aI0
aI0
aI0
aI0
aI0
aI0
aI0
aI0
aI0
aI0
aI0
aI0
aI0
aI0
aI0
aI0
aI0
aI0
aI0
aI0
aI0
aI0
aI0
aI0
aI0
aI0
aI0
aI0
aI0
aI0
aI0
aI0
aI0
aI0
aI0
aI0
aI0
aI0
aI0
aI0
aI0
aI0
aI0
aI0
aI0
aI0
aI0
aI0
aI0
aI0
aI0
aI0
aI0
aI0
aI0
aI0
aI0
aI0
aI0
aI0
aI0
aI0
aI0
aI0
aI0
aI0
aI0
aI0
aI0
aI0
aI0
aI0
aI0
aI0
aI0
aI0
aI0
aI0
aI0
aI0
aI0
aI0
aI0
aI0
aI0
aI0
aI0
aI0
aI0
aI0
aI0
aI0
aI0
aI0
aI0
aI0
aI0
aI0
aI0
aI0
aI0
aI0
aI0
aI0
aI0
aI0
aI0
aI0
aI0
aI0
aI0
aI0
aI0
aI0
aI0
aI0
aI0
aI0
aI0
aI0
aI0
aI0
aI0
aI0
aI0
aI0
aI0
aI0
aI0
aI0
aI0
aI0
aI0
aI0
aI0
aI0
aI0
aI0
aI0
aI0
aI0
aI0
aI0
aI0
aI0
aI0
aI0
aI0
aI0
aI0
aI0
aI0
aI0
aI0
aI0
aI0
aI0
aI0
aI0
aI0
aI0
aI0
aI0
aI0
aI0
aI0
aI0
aI0
aI0
aI0
aI0
aI0
aI0
aI0
aI0
aI0
aI0
aI0
aI0
aI0
aI0
aI0
aI0
aI0
aI0
asg19
F0
sg20
I01
sg21
g22
sg23
g24
sg25
F100
sg26
S'A58?T>mWh?PE9rEH5Z#nrH1IWOqM1VlZ'
p653
sg28
S'Error at Chromosome_0|math range error'
p654
ssg30
Nsg31
I0
sg32
(lp655
g1
(g34
g3
NtRp656
(dp657
g37
F0.10000000000000001
sg38
(lp658
S'0'
aS'1'
asg40
(lp659
S'0'
aS'1'
aS'1'
aS'1'
aS'0'
aS'1'
aS'0'
aS'1'
aS'1'
aS'0'
aS'0'
aS'0'
aS'1'
aS'1'
aS'0'
aS'1'
aS'1'
aS'0'
aS'0'
aS'1'
aS'0'
aS'0'
aS'1'
aS'1'
aS'0'
aS'0'
aS'1'
aS'1'
aS'0'
aS'0'
asbasg42
g43
sbag1
(g9
g3
NtRp660
(dp661
g12
(dp662
g14
Nsg15
F100
sg16
F100
sg17
(lp663
F736593043.1582303
aF943.8183621762962
aF1
aF-0.76159345751400842
aF1
aF-3.0000000005578937
aF0.99999998541897228
aF1.2131547468637072
aF1.1769263341851e+17
aI20
aF10.761594155721465
aF0
aI-4
aI0
aI0
aI0
aI0
aI0
aI0
aI0
aI0
aI0
aI0
aI0
aI0
aI0
aI0
aI0
aI0
aI0
aI0
aI0
aI0
aI0
aI0
aI0
aI0
aI0
aI0
aI0
aI0
aI0
aI0
aI0
aI0
aI0
aI0
aI0
aI0
aI0
aI0
aI0
aI0
aI0
aI0
aI0
aI0
aI0
aI0
aI0
aI0
aI0
aI0
aI0
aI0
aI0
aI0
aI0
aI0
aI0
aI0
aI0
aI0
aI0
aI0
aI0
aI0
aI0
aI0
aI0
aI0
aI0
aI0
aI0
aI0
aI0
aI0
aI0
aI0
aI0
aI0
aI0
aI0
aI0
aI0
aI0
aI0
aI0
aI0
aI0
aI0
aI0
aI0
aI0
aI0
aI0
aI0
aI0
aI0
aI0
aI0
aI0
aI0
aI0
aI0
aI0
aI0
aI0
aI0
aI0
aI0
aI0
aI0
aI0
aI0
aI0
aI0
aI0
aI0
aI0
aI0
aI0
aI0
aI0
aI0
aI0
aI0
aI0
aI0
aI0
aI0
aI0
aI0
aI0
aI0
aI0
aI0
aI0
aI0
aI0
aI0
aI0
aI0
aI0
aI0
aI0
aI0
aI0
aI0
aI0
aI0
aI0
aI0
aI0
aI0
aI0
aI0
aI0
aI0
aI0
aI0
aI0
aI0
aI0
aI0
aI0
aI0
aI0
aI0
aI0
aI0
aI0
aI0
aI0
aI0
aI0
aI0
aI0
aI0
aI0
aI0
aI0
aI0
aI0
aI0
aI0
aI0
aI0
aI0
aI0
asg19
F0
sg20
I01
sg21
g22
sg23
g24
sg25
F100
sg26
S'IBhL55YH9iS7B6>v3D8cJix3WCbpOwrp'
p664
sg28
S'Error at Chromosome_0|math range error'
p665
ssg30
Nsg31
I0
sg32
(lp666
g1
(g34
g3
NtRp667
(dp668
g37
F0.10000000000000001
sg38
(lp669
S'0'
aS'1'
asg40
(lp670
S'0'
aS'1'
aS'1'
aS'1'
aS'0'
aS'1'
aS'0'
aS'0'
aS'1'
aS'1'
aS'1'
aS'0'
aS'1'
aS'0'
aS'1'
aS'1'
aS'1'
aS'0'
aS'0'
aS'1'
aS'0'
aS'0'
aS'0'
aS'0'
aS'0'
aS'0'
aS'0'
aS'1'
aS'0'
aS'0'
asbasg42
g43
sbag1
(g9
g3
NtRp671
(dp672
g12
(dp673
g14
Nsg15
F100
sg16
F100
sg17
(lp674
F19
aF1.1511285919839405
aF1.1511285919839405
aI0
aI0
aF37.99999999944211
aF0.60545862244358584
aF1.3039220767979707
aI0
aI30
aF5343237290757.2314
aF0.30032208898946977
aI20
aI20
aI0
aI0
aI0
aI0
aI0
aI0
aI0
aI0
aI0
aI0
aI0
aI0
aI0
aI0
aI0
aI0
aI0
aI0
aI0
aI0
aI0
aI0
aI0
aI0
aI0
aI0
aI0
aI0
aI0
aI0
aI0
aI0
aI0
aI0
aI0
aI0
aI0
aI0
aI0
aI0
aI0
aI0
aI0
aI0
aI0
aI0
aI0
aI0
aI0
aI0
aI0
aI0
aI0
aI0
aI0
aI0
aI0
aI0
aI0
aI0
aI0
aI0
aI0
aI0
aI0
aI0
aI0
aI0
aI0
aI0
aI0
aI0
aI0
aI0
aI0
aI0
aI0
aI0
aI0
aI0
aI0
aI0
aI0
aI0
aI0
aI0
aI0
aI0
aI0
aI0
aI0
aI0
aI0
aI0
aI0
aI0
aI0
aI0
aI0
aI0
aI0
aI0
aI0
aI0
aI0
aI0
aI0
aI0
aI0
aI0
aI0
aI0
aI0
aI0
aI0
aI0
aI0
aI0
aI0
aI0
aI0
aI0
aI0
aI0
aI0
aI0
aI0
aI0
aI0
aI0
aI0
aI0
aI0
aI0
aI0
aI0
aI0
aI0
aI0
aI0
aI0
aI0
aI0
aI0
aI0
aI0
aI0
aI0
aI0
aI0
aI0
aI0
aI0
aI0
aI0
aI0
aI0
aI0
aI0
aI0
aI0
aI0
aI0
aI0
aI0
aI0
aI0
aI0
aI0
aI0
aI0
aI0
aI0
aI0
aI0
aI0
aI0
aI0
aI0
aI0
aI0
aI0
aI0
aI0
aI0
aI0
asg19
F0
sg20
I01
sg21
g22
sg23
g24
sg25
F100
sg26
S'&u5Lhw1>VB@GYtn$z5A>%8SFUY57iexN'
p675
sg28
S'Error at Chromosome_0|math range error'
p676
ssg30
Nsg31
I0
sg32
(lp677
g1
(g34
g3
NtRp678
(dp679
g37
F0.10000000000000001
sg38
(lp680
S'0'
aS'1'
asg40
(lp681
S'1'
aS'0'
aS'1'
aS'0'
aS'1'
aS'0'
aS'0'
aS'1'
aS'1'
aS'0'
aS'1'
aS'1'
aS'1'
aS'1'
aS'0'
aS'0'
aS'1'
aS'0'
aS'0'
aS'1'
aS'0'
aS'0'
aS'0'
aS'1'
aS'0'
aS'1'
aS'1'
aS'0'
aS'0'
aS'0'
asbasg42
g43
sbag1
(g9
g3
NtRp682
(dp683
g12
(dp684
g14
Nsg15
F100
sg16
F100
sg17
(lp685
F8.2384058439997609
aF4.052356840206249e+72
aF162.20994852478785
aI18
aI-1
aF127200.43385539316
aF-0.22420645758669674
aI10
aI0
aI0
aF0.76159415595576485
aI30
aI78
aI0
aI0
aI0
aI0
aI0
aI0
aI0
aI0
aI0
aI0
aI0
aI0
aI0
aI0
aI0
aI0
aI0
aI0
aI0
aI0
aI0
aI0
aI0
aI0
aI0
aI0
aI0
aI0
aI0
aI0
aI0
aI0
aI0
aI0
aI0
aI0
aI0
aI0
aI0
aI0
aI0
aI0
aI0
aI0
aI0
aI0
aI0
aI0
aI0
aI0
aI0
aI0
aI0
aI0
aI0
aI0
aI0
aI0
aI0
aI0
aI0
aI0
aI0
aI0
aI0
aI0
aI0
aI0
aI0
aI0
aI0
aI0
aI0
aI0
aI0
aI0
aI0
aI0
aI0
aI0
aI0
aI0
aI0
aI0
aI0
aI0
aI0
aI0
aI0
aI0
aI0
aI0
aI0
aI0
aI0
aI0
aI0
aI0
aI0
aI0
aI0
aI0
aI0
aI0
aI0
aI0
aI0
aI0
aI0
aI0
aI0
aI0
aI0
aI0
aI0
aI0
aI0
aI0
aI0
aI0
aI0
aI0
aI0
aI0
aI0
aI0
aI0
aI0
aI0
aI0
aI0
aI0
aI0
aI0
aI0
aI0
aI0
aI0
aI0
aI0
aI0
aI0
aI0
aI0
aI0
aI0
aI0
aI0
aI0
aI0
aI0
aI0
aI0
aI0
aI0
aI0
aI0
aI0
aI0
aI0
aI0
aI0
aI0
aI0
aI0
aI0
aI0
aI0
aI0
aI0
aI0
aI0
aI0
aI0
aI0
aI0
aI0
aI0
aI0
aI0
aI0
aI0
aI0
aI0
aI0
aI0
aI0
asg19
F0
sg20
I01
sg21
g22
sg23
g24
sg25
F100
sg26
S'l8hTrQbmF&o>o4abaR2xTCjBk67udmpv'
p686
sg28
S'Error at Chromosome_0|math range error'
p687
ssg30
Nsg31
I0
sg32
(lp688
g1
(g34
g3
NtRp689
(dp690
g37
F0.10000000000000001
sg38
(lp691
S'0'
aS'1'
asg40
(lp692
S'0'
aS'1'
aS'1'
aS'0'
aS'1'
aS'0'
aS'0'
aS'0'
aS'1'
aS'0'
aS'1'
aS'0'
aS'1'
aS'0'
aS'0'
aS'1'
aS'0'
aS'0'
aS'0'
aS'0'
aS'0'
aS'0'
aS'0'
aS'1'
aS'0'
aS'0'
aS'0'
aS'0'
aS'0'
aS'0'
asbasg42
g43
sbag1
(g9
g3
NtRp693
(dp694
g12
(dp695
g14
Nsg15
F100
sg16
F100
sg17
(lp696
F288.1646612298149
aF14524424832651.713
aF1337.206128387744
aF11023.232920103323
aF11
aF242582827.70489514
aF11103.232920103323
aF1.5430806345467296
aI0
aI0
aF2.4463520074491623
aF2.4463520068496694
aI0
aI0
aI0
aF0.76159415572146383
aF0.99999999587769273
aI0
aI0
aI0
aI0
aI0
aI0
aI0
aI0
aI0
aI0
aI0
aI0
aI0
aI0
aI0
aI0
aI0
aI0
aI0
aI0
aI0
aI0
aI0
aI0
aI0
aI0
aI0
aI0
aI0
aI0
aI0
aI0
aI0
aI0
aI0
aI0
aI0
aI0
aI0
aI0
aI0
aI0
aI0
aI0
aI0
aI0
aI0
aI0
aI0
aI0
aI0
aI0
aI0
aI0
aI0
aI0
aI0
aI0
aI0
aI0
aI0
aI0
aI0
aI0
aI0
aI0
aI0
aI0
aI0
aI0
aI0
aI0
aI0
aI0
aI0
aI0
aI0
aI0
aI0
aI0
aI0
aI0
aI0
aI0
aI0
aI0
aI0
aI0
aI0
aI0
aI0
aI0
aI0
aI0
aI0
aI0
aI0
aI0
aI0
aI0
aI0
aI0
aI0
aI0
aI0
aI0
aI0
aI0
aI0
aI0
aI0
aI0
aI0
aI0
aI0
aI0
aI0
aI0
aI0
aI0
aI0
aI0
aI0
aI0
aI0
aI0
aI0
aI0
aI0
aI0
aI0
aI0
aI0
aI0
aI0
aI0
aI0
aI0
aI0
aI0
aI0
aI0
aI0
aI0
aI0
aI0
aI0
aI0
aI0
aI0
aI0
aI0
aI0
aI0
aI0
aI0
aI0
aI0
aI0
aI0
aI0
aI0
aI0
aI0
aI0
aI0
aI0
aI0
aI0
aI0
aI0
aI0
aI0
aI0
aI0
aI0
aI0
aI0
aI0
aI0
aI0
aI0
aI0
asg19
F0
sg20
I01
sg21
g22
sg23
g24
sg25
F100
sg26
S'CyAQdVq5MUY3f2b8>mfA%S%w%NZupvGu'
p697
sg28
S'Error at Chromosome_0|math range error'
p698
ssg30
Nsg31
I0
sg32
(lp699
g1
(g34
g3
NtRp700
(dp701
g37
F0.10000000000000001
sg38
(lp702
S'0'
aS'1'
asg40
(lp703
S'0'
aS'1'
aS'0'
aS'0'
aS'0'
aS'1'
aS'1'
aS'1'
aS'0'
aS'0'
aS'1'
aS'1'
aS'0'
aS'0'
aS'1'
aS'1'
aS'0'
aS'0'
aS'0'
aS'0'
aS'1'
aS'1'
aS'1'
aS'0'
aS'1'
aS'0'
aS'1'
aS'0'
aS'0'
aS'0'
asbasg42
g43
sbag1
(g9
g3
NtRp704
(dp705
g12
(dp706
g14
Nsg15
F100
sg16
F100
sg17
(lp707
F9.5318178422793314e+80
aF89241144.481593639
aI0
aI0
aI0
aF1.5521489678509599e+26
aF18
aF1
aI0
aI0
aI10
aF10
aF30.999999999442107
aI10
aI0
aI0
aF10.999999999442107
aF10.999999995877692
aI0
aI0
aI0
aF10
aI0
aI0
aI0
aI0
aI0
aI0
aI0
aI0
aI0
aI0
aI0
aI0
aI0
aI0
aI0
aI0
aI0
aI0
aI0
aI0
aI0
aI0
aI0
aI0
aI0
aI0
aI0
aI0
aI0
aI0
aI0
aI0
aI0
aI0
aI0
aI0
aI0
aI0
aI0
aI0
aI0
aI0
aI0
aI0
aI0
aI0
aI0
aI0
aI0
aI0
aI0
aI0
aI0
aI0
aI0
aI0
aI0
aI0
aI0
aI0
aI0
aI0
aI0
aI0
aI0
aI0
aI0
aI0
aI0
aI0
aI0
aI0
aI0
aI0
aI0
aI0
aI0
aI0
aI0
aI0
aI0
aI0
aI0
aI0
aI0
aI0
aI0
aI0
aI0
aI0
aI0
aI0
aI0
aI0
aI0
aI0
aI0
aI0
aI0
aI0
aI0
aI0
aI0
aI0
aI0
aI0
aI0
aI0
aI0
aI0
aI0
aI0
aI0
aI0
aI0
aI0
aI0
aI0
aI0
aI0
aI0
aI0
aI0
aI0
aI0
aI0
aI0
aI0
aI0
aI0
aI0
aI0
aI0
aI0
aI0
aI0
aI0
aI0
aI0
aI0
aI0
aI0
aI0
aI0
aI0
aI0
aI0
aI0
aI0
aI0
aI0
aI0
aI0
aI0
aI0
aI0
aI0
aI0
aI0
aI0
aI0
aI0
aI0
aI0
aI0
aI0
aI0
aI0
aI0
aI0
aI0
aI0
aI0
aI0
aI0
aI0
aI0
aI0
asg19
F0
sg20
I01
sg21
g22
sg23
g24
sg25
F100
sg26
S'%puXVpAMSG@ulK>UopvV?Q1?4ow4%TUj'
p708
sg28
S'Error at Chromosome_0|math range error'
p709
ssg30
Nsg31
I0
sg32
(lp710
g1
(g34
g3
NtRp711
(dp712
g37
F0.10000000000000001
sg38
(lp713
S'0'
aS'1'
asg40
(lp714
S'0'
aS'1'
aS'1'
aS'0'
aS'1'
aS'0'
aS'1'
aS'1'
aS'0'
aS'0'
aS'1'
aS'1'
aS'1'
aS'0'
aS'0'
aS'1'
aS'0'
aS'0'
aS'1'
aS'0'
aS'0'
aS'1'
aS'0'
aS'0'
aS'1'
aS'0'
aS'0'
aS'1'
aS'0'
aS'0'
asbasg42
g43
sbag1
(g9
g3
NtRp715
(dp716
g12
(dp717
g14
Nsg15
F100
sg16
F100
sg17
(lp718
F102
aF163.54308063481523
aF316014072320.17596
aF-1
aF-2
aI40
aF0.90724925269148249
aF1.0445471051645256
aF2.996633039146102
aF1.415376651637347e+23
aF29957.070865949761
aF11022.232920103323
aF11784.198666665105
aF89241150.481593639
aI-1
aF1.5430806345939598
aI0
aI10
aF1
aF1.5430806348152437
aI0
aI0
aI10
aI0
aI0
aI0
aI0
aI0
aI0
aI0
aI0
aI0
aI0
aI0
aI0
aI0
aI0
aI0
aI0
aI0
aI0
aI0
aI0
aI0
aI0
aI0
aI0
aI0
aI0
aI0
aI0
aI0
aI0
aI0
aI0
aI0
aI0
aI0
aI0
aI0
aI0
aI0
aI0
aI0
aI0
aI0
aI0
aI0
aI0
aI0
aI0
aI0
aI0
aI0
aI0
aI0
aI0
aI0
aI0
aI0
aI0
aI0
aI0
aI0
aI0
aI0
aI0
aI0
aI0
aI0
aI0
aI0
aI0
aI0
aI0
aI0
aI0
aI0
aI0
aI0
aI0
aI0
aI0
aI0
aI0
aI0
aI0
aI0
aI0
aI0
aI0
aI0
aI0
aI0
aI0
aI0
aI0
aI0
aI0
aI0
aI0
aI0
aI0
aI0
aI0
aI0
aI0
aI0
aI0
aI0
aI0
aI0
aI0
aI0
aI0
aI0
aI0
aI0
aI0
aI0
aI0
aI0
aI0
aI0
aI0
aI0
aI0
aI0
aI0
aI0
aI0
aI0
aI0
aI0
aI0
aI0
aI0
aI0
aI0
aI0
aI0
aI0
aI0
aI0
aI0
aI0
aI0
aI0
aI0
aI0
aI0
aI0
aI0
aI0
aI0
aI0
aI0
aI0
aI0
aI0
aI0
aI0
aI0
aI0
aI0
aI0
aI0
aI0
aI0
aI0
aI0
aI0
aI0
aI0
aI0
aI0
aI0
aI0
aI0
aI0
asg19
F0
sg20
I01
sg21
g22
sg23
g24
sg25
F100
sg26
S'?GW=SdaUUGUkn2x@KDXJUWSYnHvn<gbW'
p719
sg28
S'Error at Chromosome_0|math range error'
p720
ssg30
Nsg31
I0
sg32
(lp721
g1
(g34
g3
NtRp722
(dp723
g37
F0.10000000000000001
sg38
(lp724
S'0'
aS'1'
asg40
(lp725
S'0'
aS'1'
aS'1'
aS'0'
aS'1'
aS'0'
aS'0'
aS'0'
aS'0'
aS'0'
aS'0'
aS'0'
aS'0'
aS'1'
aS'0'
aS'0'
aS'1'
aS'1'
aS'1'
aS'0'
aS'0'
aS'0'
aS'0'
aS'0'
aS'1'
aS'0'
aS'1'
aS'1'
aS'0'
aS'0'
asbasg42
g43
sbag1
(g9
g3
NtRp726
(dp727
g12
(dp728
g14
Nsg15
F100
sg16
F100
sg17
(lp729
F-1.4569193651847563
aF0.81534752983784786
aF11023.232920103323
aF1.5430806348152437
aI0
aF1.5430806348152437
aF10.642014992011999
aF11033.232920103323
aI0
aI0
aF1.0377858517154295
aF1
aI0
aI0
aI0
aF1
aI0
aI0
aI0
aI0
aI0
aI0
aI0
aI0
aI0
aI0
aI0
aI0
aI0
aI0
aI0
aI0
aI0
aI0
aI0
aI0
aI0
aI0
aI0
aI0
aI0
aI0
aI0
aI0
aI0
aI0
aI0
aI0
aI0
aI0
aI0
aI0
aI0
aI0
aI0
aI0
aI0
aI0
aI0
aI0
aI0
aI0
aI0
aI0
aI0
aI0
aI0
aI0
aI0
aI0
aI0
aI0
aI0
aI0
aI0
aI0
aI0
aI0
aI0
aI0
aI0
aI0
aI0
aI0
aI0
aI0
aI0
aI0
aI0
aI0
aI0
aI0
aI0
aI0
aI0
aI0
aI0
aI0
aI0
aI0
aI0
aI0
aI0
aI0
aI0
aI0
aI0
aI0
aI0
aI0
aI0
aI0
aI0
aI0
aI0
aI0
aI0
aI0
aI0
aI0
aI0
aI0
aI0
aI0
aI0
aI0
aI0
aI0
aI0
aI0
aI0
aI0
aI0
aI0
aI0
aI0
aI0
aI0
aI0
aI0
aI0
aI0
aI0
aI0
aI0
aI0
aI0
aI0
aI0
aI0
aI0
aI0
aI0
aI0
aI0
aI0
aI0
aI0
aI0
aI0
aI0
aI0
aI0
aI0
aI0
aI0
aI0
aI0
aI0
aI0
aI0
aI0
aI0
aI0
aI0
aI0
aI0
aI0
aI0
aI0
aI0
aI0
aI0
aI0
aI0
aI0
aI0
aI0
aI0
aI0
aI0
aI0
aI0
aI0
aI0
aI0
aI0
aI0
aI0
aI0
asg19
F0
sg20
I01
sg21
g22
sg23
g24
sg25
F100
sg26
S'vGfPxQZD7iz4xnXpVrfcYF4N36ol>9hu'
p730
sg28
S'Error at Chromosome_0|math range error'
p731
ssg30
Nsg31
I0
sg32
(lp732
g1
(g34
g3
NtRp733
(dp734
g37
F0.10000000000000001
sg38
(lp735
S'0'
aS'1'
asg40
(lp736
S'0'
aS'1'
aS'1'
aS'0'
aS'0'
aS'1'
aS'0'
aS'1'
aS'1'
aS'1'
aS'0'
aS'1'
aS'1'
aS'0'
aS'0'
aS'0'
aS'0'
aS'0'
aS'1'
aS'1'
aS'0'
aS'1'
aS'0'
aS'1'
aS'0'
aS'1'
aS'0'
aS'0'
aS'0'
aS'0'
asbasg42
g43
sbag1
(g9
g3
NtRp737
(dp738
g12
(dp739
g14
Nsg15
F100
sg16
F100
sg17
(lp740
F9.9999999958776922
aF238997175.33435944
aF3697758.8338975105
aF1.5430861660415676
aF5.8163792453876901
aF1.5430806348152437
aF1.5430806327378077
aF-5.5789362018998645e-10
aF-1.9600362505866817
aI0
aI0
aI0
aI0
aI0
aI0
aI0
aI0
aI0
aI0
aI0
aI0
aI0
aI0
aI0
aI0
aI0
aI0
aI0
aI0
aI0
aI0
aI0
aI0
aI0
aI0
aI0
aI0
aI0
aI0
aI0
aI0
aI0
aI0
aI0
aI0
aI0
aI0
aI0
aI0
aI0
aI0
aI0
aI0
aI0
aI0
aI0
aI0
aI0
aI0
aI0
aI0
aI0
aI0
aI0
aI0
aI0
aI0
aI0
aI0
aI0
aI0
aI0
aI0
aI0
aI0
aI0
aI0
aI0
aI0
aI0
aI0
aI0
aI0
aI0
aI0
aI0
aI0
aI0
aI0
aI0
aI0
aI0
aI0
aI0
aI0
aI0
aI0
aI0
aI0
aI0
aI0
aI0
aI0
aI0
aI0
aI0
aI0
aI0
aI0
aI0
aI0
aI0
aI0
aI0
aI0
aI0
aI0
aI0
aI0
aI0
aI0
aI0
aI0
aI0
aI0
aI0
aI0
aI0
aI0
aI0
aI0
aI0
aI0
aI0
aI0
aI0
aI0
aI0
aI0
aI0
aI0
aI0
aI0
aI0
aI0
aI0
aI0
aI0
aI0
aI0
aI0
aI0
aI0
aI0
aI0
aI0
aI0
aI0
aI0
aI0
aI0
aI0
aI0
aI0
aI0
aI0
aI0
aI0
aI0
aI0
aI0
aI0
aI0
aI0
aI0
aI0
aI0
aI0
aI0
aI0
aI0
aI0
aI0
aI0
aI0
aI0
aI0
aI0
aI0
aI0
aI0
aI0
aI0
aI0
aI0
aI0
aI0
aI0
aI0
aI0
asg19
F0
sg20
I01
sg21
g22
sg23
g24
sg25
F100
sg26
S'n%sW&>b@Iz451HjG8FcXS8iWlathgGXc'
p741
sg28
S'Error at Chromosome_0|math range error'
p742
ssg30
Nsg31
I0
sg32
(lp743
g1
(g34
g3
NtRp744
(dp745
g37
F0.10000000000000001
sg38
(lp746
S'0'
aS'1'
asg40
(lp747
S'0'
aS'1'
aS'0'
aS'0'
aS'1'
aS'1'
aS'0'
aS'0'
aS'0'
aS'1'
aS'1'
aS'1'
aS'0'
aS'0'
aS'1'
aS'0'
aS'1'
aS'1'
aS'0'
aS'1'
aS'0'
aS'1'
aS'0'
aS'1'
aS'1'
aS'0'
aS'0'
aS'0'
aS'0'
aS'0'
asbasg42
g43
sbag1
(g9
g3
NtRp748
(dp749
g12
(dp750
g14
Nsg15
F100
sg16
F100
sg17
(lp751
F89241328.481593639
aF11380306530375782
aF0.76159415595576485
aF51530.722096349724
aI50
aF6.2672577782146479e+34
aF659407907.24160731
aF11013.232920103323
aI10
aI20
aI0
aF1
aF11033.232920103323
aF1.5430806348152437
aI0
aI0
aF11013.232920103323
aF1.4461728085856087
aF11033.232920103323
aI0
aI0
aI0
aF1.5430806348152437
aI0
aI0
aI0
aI0
aI0
aI0
aI0
aI0
aI0
aI0
aI0
aI0
aI0
aI0
aI0
aI0
aI0
aI0
aI0
aI0
aI0
aI0
aI0
aI0
aI0
aI0
aI0
aI0
aI0
aI0
aI0
aI0
aI0
aI0
aI0
aI0
aI0
aI0
aI0
aI0
aI0
aI0
aI0
aI0
aI0
aI0
aI0
aI0
aI0
aI0
aI0
aI0
aI0
aI0
aI0
aI0
aI0
aI0
aI0
aI0
aI0
aI0
aI0
aI0
aI0
aI0
aI0
aI0
aI0
aI0
aI0
aI0
aI0
aI0
aI0
aI0
aI0
aI0
aI0
aI0
aI0
aI0
aI0
aI0
aI0
aI0
aI0
aI0
aI0
aI0
aI0
aI0
aI0
aI0
aI0
aI0
aI0
aI0
aI0
aI0
aI0
aI0
aI0
aI0
aI0
aI0
aI0
aI0
aI0
aI0
aI0
aI0
aI0
aI0
aI0
aI0
aI0
aI0
aI0
aI0
aI0
aI0
aI0
aI0
aI0
aI0
aI0
aI0
aI0
aI0
aI0
aI0
aI0
aI0
aI0
aI0
aI0
aI0
aI0
aI0
aI0
aI0
aI0
aI0
aI0
aI0
aI0
aI0
aI0
aI0
aI0
aI0
aI0
aI0
aI0
aI0
aI0
aI0
aI0
aI0
aI0
aI0
aI0
aI0
aI0
aI0
aI0
aI0
aI0
aI0
aI0
aI0
aI0
aI0
aI0
aI0
aI0
asg19
F0
sg20
I01
sg21
g22
sg23
g24
sg25
F100
sg26
S'idR@FouvstLYaz8K9Ucoas1J8IdQGtmU'
p752
sg28
S'Error at Chromosome_0|math range error'
p753
ssg30
Nsg31
I0
sg32
(lp754
g1
(g34
g3
NtRp755
(dp756
g37
F0.10000000000000001
sg38
(lp757
S'0'
aS'1'
asg40
(lp758
S'0'
aS'1'
aS'0'
aS'0'
aS'0'
aS'0'
aS'0'
aS'0'
aS'0'
aS'0'
aS'0'
aS'1'
aS'0'
aS'0'
aS'0'
aS'0'
aS'0'
aS'1'
aS'1'
aS'0'
aS'1'
aS'1'
aS'0'
aS'0'
aS'0'
aS'0'
aS'1'
aS'1'
aS'0'
aS'0'
asbasg42
g43
sbag1
(g9
g3
NtRp759
(dp760
g12
(dp761
g14
Nsg15
F100
sg16
F100
sg17
(lp762
F11013.232920103323
aI79
aI10
aI0
aF27352.072874645899
aF4.0523549144604667e+72
aF4.052356840206249e+72
aF23586.905276244262
aF1.028553532011165
aI0
aF29939.070865949761
aF23620.905276244262
aI0
aI0
aI0
aF11049.232920103323
aI0
aI0
aI0
aI0
aI0
aI0
aI0
aI0
aI0
aI0
aI0
aI0
aI0
aI0
aI0
aI0
aI0
aI0
aI0
aI0
aI0
aI0
aI0
aI0
aI0
aI0
aI0
aI0
aI0
aI0
aI0
aI0
aI0
aI0
aI0
aI0
aI0
aI0
aI0
aI0
aI0
aI0
aI0
aI0
aI0
aI0
aI0
aI0
aI0
aI0
aI0
aI0
aI0
aI0
aI0
aI0
aI0
aI0
aI0
aI0
aI0
aI0
aI0
aI0
aI0
aI0
aI0
aI0
aI0
aI0
aI0
aI0
aI0
aI0
aI0
aI0
aI0
aI0
aI0
aI0
aI0
aI0
aI0
aI0
aI0
aI0
aI0
aI0
aI0
aI0
aI0
aI0
aI0
aI0
aI0
aI0
aI0
aI0
aI0
aI0
aI0
aI0
aI0
aI0
aI0
aI0
aI0
aI0
aI0
aI0
aI0
aI0
aI0
aI0
aI0
aI0
aI0
aI0
aI0
aI0
aI0
aI0
aI0
aI0
aI0
aI0
aI0
aI0
aI0
aI0
aI0
aI0
aI0
aI0
aI0
aI0
aI0
aI0
aI0
aI0
aI0
aI0
aI0
aI0
aI0
aI0
aI0
aI0
aI0
aI0
aI0
aI0
aI0
aI0
aI0
aI0
aI0
aI0
aI0
aI0
aI0
aI0
aI0
aI0
aI0
aI0
aI0
aI0
aI0
aI0
aI0
aI0
aI0
aI0
aI0
aI0
aI0
aI0
aI0
aI0
aI0
aI0
aI0
aI0
asg19
F0
sg20
I01
sg21
g22
sg23
g24
sg25
F100
sg26
S'zvWBPe3o&qHR8&Ah>c7lvOfoew45lOzz'
p763
sg28
S'Error at Chromosome_0|math range error'
p764
ssg30
Nsg31
I0
sg32
(lp765
g1
(g34
g3
NtRp766
(dp767
g37
F0.10000000000000001
sg38
(lp768
S'0'
aS'1'
asg40
(lp769
S'1'
aS'0'
aS'0'
aS'0'
aS'0'
aS'0'
aS'0'
aS'1'
aS'1'
aS'0'
aS'1'
aS'0'
aS'0'
aS'0'
aS'0'
aS'0'
aS'0'
aS'1'
aS'1'
aS'0'
aS'0'
aS'1'
aS'0'
aS'1'
aS'0'
aS'1'
aS'1'
aS'1'
aS'0'
aS'0'
asbasg42
g43
sbag1
(g9
g3
NtRp770
(dp771
g12
(dp772
g14
Nsg15
F100
sg16
F100
sg17
(lp773
F0.91337266641981774
aF9.6778802101786129e+53
aF242582717.70489514
aF242582617.70489514
aF11
aF0.88620130855036661
aF11023.232920103323
aF1
aI0
aI0
aF4.7272980906883813e+73
aI0
aI0
aI0
aI0
aI0
aI0
aI0
aI0
aI0
aI0
aI0
aI0
aI0
aI0
aI0
aI0
aI0
aI0
aI0
aI0
aI0
aI0
aI0
aI0
aI0
aI0
aI0
aI0
aI0
aI0
aI0
aI0
aI0
aI0
aI0
aI0
aI0
aI0
aI0
aI0
aI0
aI0
aI0
aI0
aI0
aI0
aI0
aI0
aI0
aI0
aI0
aI0
aI0
aI0
aI0
aI0
aI0
aI0
aI0
aI0
aI0
aI0
aI0
aI0
aI0
aI0
aI0
aI0
aI0
aI0
aI0
aI0
aI0
aI0
aI0
aI0
aI0
aI0
aI0
aI0
aI0
aI0
aI0
aI0
aI0
aI0
aI0
aI0
aI0
aI0
aI0
aI0
aI0
aI0
aI0
aI0
aI0
aI0
aI0
aI0
aI0
aI0
aI0
aI0
aI0
aI0
aI0
aI0
aI0
aI0
aI0
aI0
aI0
aI0
aI0
aI0
aI0
aI0
aI0
aI0
aI0
aI0
aI0
aI0
aI0
aI0
aI0
aI0
aI0
aI0
aI0
aI0
aI0
aI0
aI0
aI0
aI0
aI0
aI0
aI0
aI0
aI0
aI0
aI0
aI0
aI0
aI0
aI0
aI0
aI0
aI0
aI0
aI0
aI0
aI0
aI0
aI0
aI0
aI0
aI0
aI0
aI0
aI0
aI0
aI0
aI0
aI0
aI0
aI0
aI0
aI0
aI0
aI0
aI0
aI0
aI0
aI0
aI0
aI0
aI0
aI0
aI0
aI0
aI0
aI0
aI0
aI0
aI0
aI0
asg19
F0
sg20
I01
sg21
g22
sg23
g24
sg25
F100
sg26
S'ihzoe371PsS$RTzC92AXZretR<Yn=ab5'
p774
sg28
S'Error at Chromosome_0|math range error'
p775
ssg30
Nsg31
I0
sg32
(lp776
g1
(g34
g3
NtRp777
(dp778
g37
F0.10000000000000001
sg38
(lp779
S'0'
aS'1'
asg40
(lp780
S'0'
aS'1'
aS'1'
aS'1'
aS'0'
aS'0'
aS'1'
aS'0'
aS'0'
aS'1'
aS'1'
aS'1'
aS'0'
aS'0'
aS'1'
aS'0'
aS'0'
aS'1'
aS'1'
aS'0'
aS'1'
aS'1'
aS'1'
aS'0'
aS'0'
aS'0'
aS'1'
aS'1'
aS'0'
aS'0'
asbasg42
g43
sbag1
(g9
g3
NtRp781
(dp782
g12
(dp783
g14
Nsg15
F100
sg16
F100
sg17
(lp784
F34.99999999944211
aF4.052356840206249e+72
aF4.052356840206249e+72
aF29936.070865949761
aI20
aF4.6268908627938936e+29
aF4.052356840206249e+72
aF1.5430802076518917
aF1.0215126719934102
aI30
aI10
aF1.0000000000000038
aF1.0258025308852581
aI0
aI0
aI0
aF1.5430806348152437
aI0
aI0
aI0
aI0
aI0
aI0
aI0
aI0
aI0
aI0
aI0
aI0
aI0
aI0
aI0
aI0
aI0
aI0
aI0
aI0
aI0
aI0
aI0
aI0
aI0
aI0
aI0
aI0
aI0
aI0
aI0
aI0
aI0
aI0
aI0
aI0
aI0
aI0
aI0
aI0
aI0
aI0
aI0
aI0
aI0
aI0
aI0
aI0
aI0
aI0
aI0
aI0
aI0
aI0
aI0
aI0
aI0
aI0
aI0
aI0
aI0
aI0
aI0
aI0
aI0
aI0
aI0
aI0
aI0
aI0
aI0
aI0
aI0
aI0
aI0
aI0
aI0
aI0
aI0
aI0
aI0
aI0
aI0
aI0
aI0
aI0
aI0
aI0
aI0
aI0
aI0
aI0
aI0
aI0
aI0
aI0
aI0
aI0
aI0
aI0
aI0
aI0
aI0
aI0
aI0
aI0
aI0
aI0
aI0
aI0
aI0
aI0
aI0
aI0
aI0
aI0
aI0
aI0
aI0
aI0
aI0
aI0
aI0
aI0
aI0
aI0
aI0
aI0
aI0
aI0
aI0
aI0
aI0
aI0
aI0
aI0
aI0
aI0
aI0
aI0
aI0
aI0
aI0
aI0
aI0
aI0
aI0
aI0
aI0
aI0
aI0
aI0
aI0
aI0
aI0
aI0
aI0
aI0
aI0
aI0
aI0
aI0
aI0
aI0
aI0
aI0
aI0
aI0
aI0
aI0
aI0
aI0
aI0
aI0
aI0
aI0
aI0
aI0
aI0
aI0
aI0
aI0
aI0
asg19
F0
sg20
I01
sg21
g22
sg23
g24
sg25
F100
sg26
S'GSfIMYu>s#@qL4gE&V9rDTSbdK?P4awc'
p785
sg28
S'Error at Chromosome_0|math range error'
p786
ssg30
Nsg31
I0
sg32
(lp787
g1
(g34
g3
NtRp788
(dp789
g37
F0.10000000000000001
sg38
(lp790
S'0'
aS'1'
asg40
(lp791
S'0'
aS'0'
aS'0'
aS'0'
aS'1'
aS'1'
aS'0'
aS'1'
aS'1'
aS'1'
aS'1'
aS'0'
aS'0'
aS'1'
aS'1'
aS'0'
aS'0'
aS'0'
aS'0'
aS'0'
aS'1'
aS'1'
aS'0'
aS'1'
aS'0'
aS'1'
aS'1'
aS'1'
aS'0'
aS'0'
asbasg42
g43
sbag1
(g9
g3
NtRp792
(dp793
g12
(dp794
g14
Nsg15
F100
sg16
F100
sg17
(lp795
F10.642014992011999
aF1.4219181848489955
aF0.99999999867173572
aF0
aF58.099913236662402
aF1.4087445728242558
aF0.54308063303490783
aF1.1769263341851e+17
aF4.052356840206249e+72
aI0
aF1.307026507033741
aF4.3216705313468413
aF2.4463520074491623
aI0
aI0
aF1.4461728085856087
aF1
aI0
aI0
aI0
aI0
aI0
aI0
aI0
aI0
aI0
aI0
aI0
aI0
aI0
aI0
aI0
aI0
aI0
aI0
aI0
aI0
aI0
aI0
aI0
aI0
aI0
aI0
aI0
aI0
aI0
aI0
aI0
aI0
aI0
aI0
aI0
aI0
aI0
aI0
aI0
aI0
aI0
aI0
aI0
aI0
aI0
aI0
aI0
aI0
aI0
aI0
aI0
aI0
aI0
aI0
aI0
aI0
aI0
aI0
aI0
aI0
aI0
aI0
aI0
aI0
aI0
aI0
aI0
aI0
aI0
aI0
aI0
aI0
aI0
aI0
aI0
aI0
aI0
aI0
aI0
aI0
aI0
aI0
aI0
aI0
aI0
aI0
aI0
aI0
aI0
aI0
aI0
aI0
aI0
aI0
aI0
aI0
aI0
aI0
aI0
aI0
aI0
aI0
aI0
aI0
aI0
aI0
aI0
aI0
aI0
aI0
aI0
aI0
aI0
aI0
aI0
aI0
aI0
aI0
aI0
aI0
aI0
aI0
aI0
aI0
aI0
aI0
aI0
aI0
aI0
aI0
aI0
aI0
aI0
aI0
aI0
aI0
aI0
aI0
aI0
aI0
aI0
aI0
aI0
aI0
aI0
aI0
aI0
aI0
aI0
aI0
aI0
aI0
aI0
aI0
aI0
aI0
aI0
aI0
aI0
aI0
aI0
aI0
aI0
aI0
aI0
aI0
aI0
aI0
aI0
aI0
aI0
aI0
aI0
aI0
aI0
aI0
aI0
aI0
aI0
aI0
aI0
aI0
aI0
asg19
F0
sg20
I01
sg21
g22
sg23
g24
sg25
F100
sg26
S'blmp?e?UsRNo7qK29ctNDZfuayDVsnvc'
p796
sg28
S'Error at Chromosome_0|math range error'
p797
ssg30
Nsg31
I0
sg32
(lp798
g1
(g34
g3
NtRp799
(dp800
g37
F0.10000000000000001
sg38
(lp801
S'0'
aS'1'
asg40
(lp802
S'0'
aS'1'
aS'0'
aS'1'
aS'1'
aS'0'
aS'1'
aS'0'
aS'1'
aS'1'
aS'0'
aS'1'
aS'1'
aS'0'
aS'1'
aS'0'
aS'1'
aS'0'
aS'0'
aS'1'
aS'0'
aS'1'
aS'1'
aS'1'
aS'1'
aS'0'
aS'1'
aS'1'
aS'0'
aS'0'
asbasg42
g43
sbag1
(g9
g3
NtRp803
(dp804
g12
(dp805
g14
Nsg15
F100
sg16
F100
sg17
(lp806
F276.99999977492968
aF30011.070865949761
aF51530.722096349724
aF1
aI0
aF1
aF8.9259099329153967e+76
aF11
aF1.5430806348152437
aF1
aF1
aF-1
aI20
aI10
aI0
aF-1.9600894992188242
aF-0.1818723889283228
aI40
aI0
aI0
aI0
aI0
aI0
aI0
aI0
aI0
aI0
aI0
aI0
aI0
aI0
aI0
aI0
aI0
aI0
aI0
aI0
aI0
aI0
aI0
aI0
aI0
aI0
aI0
aI0
aI0
aI0
aI0
aI0
aI0
aI0
aI0
aI0
aI0
aI0
aI0
aI0
aI0
aI0
aI0
aI0
aI0
aI0
aI0
aI0
aI0
aI0
aI0
aI0
aI0
aI0
aI0
aI0
aI0
aI0
aI0
aI0
aI0
aI0
aI0
aI0
aI0
aI0
aI0
aI0
aI0
aI0
aI0
aI0
aI0
aI0
aI0
aI0
aI0
aI0
aI0
aI0
aI0
aI0
aI0
aI0
aI0
aI0
aI0
aI0
aI0
aI0
aI0
aI0
aI0
aI0
aI0
aI0
aI0
aI0
aI0
aI0
aI0
aI0
aI0
aI0
aI0
aI0
aI0
aI0
aI0
aI0
aI0
aI0
aI0
aI0
aI0
aI0
aI0
aI0
aI0
aI0
aI0
aI0
aI0
aI0
aI0
aI0
aI0
aI0
aI0
aI0
aI0
aI0
aI0
aI0
aI0
aI0
aI0
aI0
aI0
aI0
aI0
aI0
aI0
aI0
aI0
aI0
aI0
aI0
aI0
aI0
aI0
aI0
aI0
aI0
aI0
aI0
aI0
aI0
aI0
aI0
aI0
aI0
aI0
aI0
aI0
aI0
aI0
aI0
aI0
aI0
aI0
aI0
aI0
aI0
aI0
aI0
aI0
aI0
aI0
aI0
aI0
aI0
aI0
asg19
F0
sg20
I01
sg21
g22
sg23
g24
sg25
F100
sg26
S'6VQ#ecB9ue#ovbJqBS?odAvu9JdVvBl$'
p807
sg28
S'Error at Chromosome_0|math range error'
p808
ssg30
Nsg31
I0
sg32
(lp809
g1
(g34
g3
NtRp810
(dp811
g37
F0.10000000000000001
sg38
(lp812
S'0'
aS'1'
asg40
(lp813
S'0'
aS'1'
aS'0'
aS'0'
aS'0'
aS'0'
aS'0'
aS'1'
aS'1'
aS'0'
aS'0'
aS'1'
aS'0'
aS'0'
aS'0'
aS'0'
aS'1'
aS'0'
aS'1'
aS'1'
aS'0'
aS'1'
aS'0'
aS'1'
aS'0'
aS'1'
aS'0'
aS'0'
aS'0'
aS'0'
asbasg42
g43
sbag1
(g9
g3
NtRp814
(dp815
g12
(dp816
g14
Nsg15
F100
sg16
F100
sg17
(lp817
F1206.1801492063641
aF32829977.568665262
aF29937.070865949761
aF11023.232920103323
aI0
aF1.4279039171713013
aF29937.070865949761
aF51538.722096349724
aF29937.070742539938
aF12.775679038020975
aF0.91263657596321157
aF29937.070742539938
aF29937.07084924807
aF29937.07084924807
aF4.052356840206249e+72
aF0.30430458623589618
aF-0.087363424036788428
aF10
aF1
aI0
aI0
aF10
aF1
aI0
aI0
aI0
aI0
aI0
aI0
aI0
aI0
aI0
aI0
aI0
aI0
aI0
aI0
aI0
aI0
aI0
aI0
aI0
aI0
aI0
aI0
aI0
aI0
aI0
aI0
aI0
aI0
aI0
aI0
aI0
aI0
aI0
aI0
aI0
aI0
aI0
aI0
aI0
aI0
aI0
aI0
aI0
aI0
aI0
aI0
aI0
aI0
aI0
aI0
aI0
aI0
aI0
aI0
aI0
aI0
aI0
aI0
aI0
aI0
aI0
aI0
aI0
aI0
aI0
aI0
aI0
aI0
aI0
aI0
aI0
aI0
aI0
aI0
aI0
aI0
aI0
aI0
aI0
aI0
aI0
aI0
aI0
aI0
aI0
aI0
aI0
aI0
aI0
aI0
aI0
aI0
aI0
aI0
aI0
aI0
aI0
aI0
aI0
aI0
aI0
aI0
aI0
aI0
aI0
aI0
aI0
aI0
aI0
aI0
aI0
aI0
aI0
aI0
aI0
aI0
aI0
aI0
aI0
aI0
aI0
aI0
aI0
aI0
aI0
aI0
aI0
aI0
aI0
aI0
aI0
aI0
aI0
aI0
aI0
aI0
aI0
aI0
aI0
aI0
aI0
aI0
aI0
aI0
aI0
aI0
aI0
aI0
aI0
aI0
aI0
aI0
aI0
aI0
aI0
aI0
aI0
aI0
aI0
aI0
aI0
aI0
aI0
aI0
aI0
aI0
aI0
aI0
aI0
aI0
aI0
aI0
aI0
aI0
aI0
aI0
aI0
asg19
F0
sg20
I01
sg21
g22
sg23
g24
sg25
F100
sg26
S'qyfCx@T1lmvP<E&A@q$mKM#?2mq6FI@w'
p818
sg28
S'Error at Chromosome_0|math range error'
p819
ssg30
Nsg31
I0
sg32
(lp820
g1
(g34
g3
NtRp821
(dp822
g37
F0.10000000000000001
sg38
(lp823
S'0'
aS'1'
asg40
(lp824
S'1'
aS'1'
aS'0'
aS'0'
aS'0'
aS'1'
aS'1'
aS'0'
aS'1'
aS'1'
aS'0'
aS'0'
aS'0'
aS'0'
aS'1'
aS'1'
aS'1'
aS'0'
aS'1'
aS'0'
aS'1'
aS'0'
aS'0'
aS'0'
aS'0'
aS'0'
aS'0'
aS'1'
aS'0'
aS'0'
asbasg42
g43
sbag1
(g9
g3
NtRp825
(dp826
g12
(dp827
g14
Nsg15
F100
sg16
F100
sg17
(lp828
F1.5430806341596066
aF1.3043389668557321
aI0
aF167.87857252384407
aI0
aF1.5430806348152437
aF3697817.8338995399
aF1.4219181848489955
aF0
aF0
aF11033.232920103323
aF29937.070865949761
aI0
aF1
aF5.8163792453876901
aI0
aI0
aF1
aF1.5430806348152437
aI0
aI0
aI0
aI0
aI0
aI0
aI0
aI0
aI0
aI0
aI0
aI0
aI0
aI0
aI0
aI0
aI0
aI0
aI0
aI0
aI0
aI0
aI0
aI0
aI0
aI0
aI0
aI0
aI0
aI0
aI0
aI0
aI0
aI0
aI0
aI0
aI0
aI0
aI0
aI0
aI0
aI0
aI0
aI0
aI0
aI0
aI0
aI0
aI0
aI0
aI0
aI0
aI0
aI0
aI0
aI0
aI0
aI0
aI0
aI0
aI0
aI0
aI0
aI0
aI0
aI0
aI0
aI0
aI0
aI0
aI0
aI0
aI0
aI0
aI0
aI0
aI0
aI0
aI0
aI0
aI0
aI0
aI0
aI0
aI0
aI0
aI0
aI0
aI0
aI0
aI0
aI0
aI0
aI0
aI0
aI0
aI0
aI0
aI0
aI0
aI0
aI0
aI0
aI0
aI0
aI0
aI0
aI0
aI0
aI0
aI0
aI0
aI0
aI0
aI0
aI0
aI0
aI0
aI0
aI0
aI0
aI0
aI0
aI0
aI0
aI0
aI0
aI0
aI0
aI0
aI0
aI0
aI0
aI0
aI0
aI0
aI0
aI0
aI0
aI0
aI0
aI0
aI0
aI0
aI0
aI0
aI0
aI0
aI0
aI0
aI0
aI0
aI0
aI0
aI0
aI0
aI0
aI0
aI0
aI0
aI0
aI0
aI0
aI0
aI0
aI0
aI0
aI0
aI0
aI0
aI0
aI0
aI0
aI0
aI0
aI0
aI0
aI0
aI0
aI0
aI0
asg19
F0
sg20
I01
sg21
g22
sg23
g24
sg25
F100
sg26
S'G1xa4a8SBQn3F=G$uUVT$s>eCe8LOpCT'
p829
sg28
S'Error at Chromosome_0|math range error'
p830
ssg30
Nsg31
I0
sg32
(lp831
g1
(g34
g3
NtRp832
(dp833
g37
F0.10000000000000001
sg38
(lp834
S'0'
aS'1'
asg40
(lp835
S'1'
aS'0'
aS'1'
aS'0'
aS'0'
aS'1'
aS'1'
aS'0'
aS'0'
aS'1'
aS'1'
aS'0'
aS'0'
aS'1'
aS'0'
aS'1'
aS'0'
aS'1'
aS'0'
aS'1'
aS'0'
aS'1'
aS'1'
aS'1'
aS'1'
aS'0'
aS'1'
aS'1'
aS'0'
aS'0'
asbasg42
g43
sbag1
(g9
g3
NtRp836
(dp837
g12
(dp838
g14
Nsg15
F100
sg16
F100
sg17
(lp839
F723128532244.73755
aF-0.74656376396276647
aI-1
aI0
aI0
aF-4.2384058440442356
aF5.187732878718443e+104
aF4.052356840206249e+72
aI0
aI0
aF0.86282720060099505
aF108012.01676109189
aF167.87857252384407
aI0
aF1
aF1
aF223623762.13415691
aF5.8163792453876901
aI0
aI0
aI0
aF4.052356840206249e+72
aF1.3043045862358962
aI0
aI0
aI0
aF1.5430806348152437
aF1
aI0
aI0
aI0
aI0
aI0
aI0
aI0
aI0
aI0
aI0
aI0
aI0
aI0
aI0
aI0
aI0
aI0
aI0
aI0
aI0
aI0
aI0
aI0
aI0
aI0
aI0
aI0
aI0
aI0
aI0
aI0
aI0
aI0
aI0
aI0
aI0
aI0
aI0
aI0
aI0
aI0
aI0
aI0
aI0
aI0
aI0
aI0
aI0
aI0
aI0
aI0
aI0
aI0
aI0
aI0
aI0
aI0
aI0
aI0
aI0
aI0
aI0
aI0
aI0
aI0
aI0
aI0
aI0
aI0
aI0
aI0
aI0
aI0
aI0
aI0
aI0
aI0
aI0
aI0
aI0
aI0
aI0
aI0
aI0
aI0
aI0
aI0
aI0
aI0
aI0
aI0
aI0
aI0
aI0
aI0
aI0
aI0
aI0
aI0
aI0
aI0
aI0
aI0
aI0
aI0
aI0
aI0
aI0
aI0
aI0
aI0
aI0
aI0
aI0
aI0
aI0
aI0
aI0
aI0
aI0
aI0
aI0
aI0
aI0
aI0
aI0
aI0
aI0
aI0
aI0
aI0
aI0
aI0
aI0
aI0
aI0
aI0
aI0
aI0
aI0
aI0
aI0
aI0
aI0
aI0
aI0
aI0
aI0
aI0
aI0
aI0
aI0
aI0
aI0
aI0
aI0
aI0
aI0
aI0
aI0
aI0
aI0
aI0
aI0
aI0
aI0
aI0
aI0
aI0
aI0
aI0
aI0
asg19
F0
sg20
I01
sg21
g22
sg23
g24
sg25
F100
sg26
S'uleV=R=dWnu%pha&aSOM9P6se5Bo3tfe'
p840
sg28
S'Error at Chromosome_0|math range error'
p841
ssg30
Nsg31
I0
sg32
(lp842
g1
(g34
g3
NtRp843
(dp844
g37
F0.10000000000000001
sg38
(lp845
S'0'
aS'1'
asg40
(lp846
S'0'
aS'1'
aS'1'
aS'0'
aS'1'
aS'0'
aS'0'
aS'1'
aS'1'
aS'0'
aS'0'
aS'0'
aS'0'
aS'1'
aS'0'
aS'0'
aS'0'
aS'1'
aS'0'
aS'0'
aS'0'
aS'1'
aS'0'
aS'0'
aS'1'
aS'0'
aS'0'
aS'0'
aS'0'
aS'0'
asbasg42
g43
sbag1
(g9
g3
NtRp847
(dp848
g12
(dp849
g14
Nsg15
F100
sg16
F100
sg17
(lp850
F0.76159415572146383
aF0.89123624365918286
aF-4.1223072733131971e-09
aF0
aI20
aF1.5430806341596066
aF0.56626997596147965
aI79
aI40
aI10
aF1.5430806345939598
aF35457.36480924092
aI0
aI0
aI0
aF1.543059785562849
aI0
aI0
aI0
aI0
aI0
aI0
aI0
aI0
aI0
aI0
aI0
aI0
aI0
aI0
aI0
aI0
aI0
aI0
aI0
aI0
aI0
aI0
aI0
aI0
aI0
aI0
aI0
aI0
aI0
aI0
aI0
aI0
aI0
aI0
aI0
aI0
aI0
aI0
aI0
aI0
aI0
aI0
aI0
aI0
aI0
aI0
aI0
aI0
aI0
aI0
aI0
aI0
aI0
aI0
aI0
aI0
aI0
aI0
aI0
aI0
aI0
aI0
aI0
aI0
aI0
aI0
aI0
aI0
aI0
aI0
aI0
aI0
aI0
aI0
aI0
aI0
aI0
aI0
aI0
aI0
aI0
aI0
aI0
aI0
aI0
aI0
aI0
aI0
aI0
aI0
aI0
aI0
aI0
aI0
aI0
aI0
aI0
aI0
aI0
aI0
aI0
aI0
aI0
aI0
aI0
aI0
aI0
aI0
aI0
aI0
aI0
aI0
aI0
aI0
aI0
aI0
aI0
aI0
aI0
aI0
aI0
aI0
aI0
aI0
aI0
aI0
aI0
aI0
aI0
aI0
aI0
aI0
aI0
aI0
aI0
aI0
aI0
aI0
aI0
aI0
aI0
aI0
aI0
aI0
aI0
aI0
aI0
aI0
aI0
aI0
aI0
aI0
aI0
aI0
aI0
aI0
aI0
aI0
aI0
aI0
aI0
aI0
aI0
aI0
aI0
aI0
aI0
aI0
aI0
aI0
aI0
aI0
aI0
aI0
aI0
aI0
aI0
aI0
aI0
aI0
aI0
aI0
aI0
aI0
asg19
F0
sg20
I01
sg21
g22
sg23
g24
sg25
F100
sg26
S'xNn57NoOzO28zh&GQpZh2cwrmYXUUi2%'
p851
sg28
S'Error at Chromosome_0|math range error'
p852
ssg30
Nsg31
I0
sg32
(lp853
g1
(g34
g3
NtRp854
(dp855
g37
F0.10000000000000001
sg38
(lp856
S'0'
aS'1'
asg40
(lp857
S'0'
aS'1'
aS'0'
aS'0'
aS'0'
aS'1'
aS'1'
aS'0'
aS'1'
aS'1'
aS'0'
aS'1'
aS'0'
aS'0'
aS'0'
aS'1'
aS'0'
aS'1'
aS'0'
aS'0'
aS'0'
aS'0'
aS'1'
aS'0'
aS'0'
aS'1'
aS'1'
aS'0'
aS'0'
aS'0'
asbasg42
g43
sbag1
(g9
g3
NtRp858
(dp859
g12
(dp860
g14
Nsg15
F100
sg16
F100
sg17
(lp861
F0
aF11042.232874703386
aF98386160095.775803
aF28455907.779412486
aF2.842859999667966e+24
aI-2
aF3.8524624258756456e+58
aF11013.232920103323
aI0
aI20
aI0
aF11023.232920103323
aF2.4463520059202661
aF27595332.982949357
aI0
aI0
aF11.816975484930005
aF1.5430806348152437
aI0
aI0
aI0
aI0
aI0
aI0
aI0
aI0
aI0
aI0
aI0
aI0
aI0
aI0
aI0
aI0
aI0
aI0
aI0
aI0
aI0
aI0
aI0
aI0
aI0
aI0
aI0
aI0
aI0
aI0
aI0
aI0
aI0
aI0
aI0
aI0
aI0
aI0
aI0
aI0
aI0
aI0
aI0
aI0
aI0
aI0
aI0
aI0
aI0
aI0
aI0
aI0
aI0
aI0
aI0
aI0
aI0
aI0
aI0
aI0
aI0
aI0
aI0
aI0
aI0
aI0
aI0
aI0
aI0
aI0
aI0
aI0
aI0
aI0
aI0
aI0
aI0
aI0
aI0
aI0
aI0
aI0
aI0
aI0
aI0
aI0
aI0
aI0
aI0
aI0
aI0
aI0
aI0
aI0
aI0
aI0
aI0
aI0
aI0
aI0
aI0
aI0
aI0
aI0
aI0
aI0
aI0
aI0
aI0
aI0
aI0
aI0
aI0
aI0
aI0
aI0
aI0
aI0
aI0
aI0
aI0
aI0
aI0
aI0
aI0
aI0
aI0
aI0
aI0
aI0
aI0
aI0
aI0
aI0
aI0
aI0
aI0
aI0
aI0
aI0
aI0
aI0
aI0
aI0
aI0
aI0
aI0
aI0
aI0
aI0
aI0
aI0
aI0
aI0
aI0
aI0
aI0
aI0
aI0
aI0
aI0
aI0
aI0
aI0
aI0
aI0
aI0
aI0
aI0
aI0
aI0
aI0
aI0
aI0
aI0
aI0
aI0
aI0
aI0
aI0
aI0
aI0
asg19
F0
sg20
I01
sg21
g22
sg23
g24
sg25
F100
sg26
S'h49Pbwc3#F%%J=ukVAb2KxNnHldzlypk'
p862
sg28
S'Error at Chromosome_0|math range error'
p863
ssg30
Nsg31
I0
sg32
(lp864
g1
(g34
g3
NtRp865
(dp866
g37
F0.10000000000000001
sg38
(lp867
S'0'
aS'1'
asg40
(lp868
S'0'
aS'0'
aS'0'
aS'0'
aS'0'
aS'0'
aS'1'
aS'0'
aS'0'
aS'1'
aS'1'
aS'0'
aS'0'
aS'0'
aS'1'
aS'0'
aS'0'
aS'0'
aS'0'
aS'0'
aS'1'
aS'1'
aS'0'
aS'0'
aS'1'
aS'0'
aS'0'
aS'1'
aS'0'
aS'0'
asbasg42
g43
sbag1
(g9
g3
NtRp869
(dp870
g12
(dp871
g14
Nsg15
F100
sg16
F100
sg17
(lp872
F1.2927021242418031e+37
aF97864804716.419388
aF242582597.70489514
aF659407866.80349207
aF1.5430806348152437
aF-16
aF1.0114416779960145
aF1
aF11013.232920103323
aI0
aF0.76178430883722614
aI0
aI0
aI0
aI0
aF2.4463520074491623
aI0
aI0
aI0
aI0
aI0
aI0
aI0
aI0
aI0
aI0
aI0
aI0
aI0
aI0
aI0
aI0
aI0
aI0
aI0
aI0
aI0
aI0
aI0
aI0
aI0
aI0
aI0
aI0
aI0
aI0
aI0
aI0
aI0
aI0
aI0
aI0
aI0
aI0
aI0
aI0
aI0
aI0
aI0
aI0
aI0
aI0
aI0
aI0
aI0
aI0
aI0
aI0
aI0
aI0
aI0
aI0
aI0
aI0
aI0
aI0
aI0
aI0
aI0
aI0
aI0
aI0
aI0
aI0
aI0
aI0
aI0
aI0
aI0
aI0
aI0
aI0
aI0
aI0
aI0
aI0
aI0
aI0
aI0
aI0
aI0
aI0
aI0
aI0
aI0
aI0
aI0
aI0
aI0
aI0
aI0
aI0
aI0
aI0
aI0
aI0
aI0
aI0
aI0
aI0
aI0
aI0
aI0
aI0
aI0
aI0
aI0
aI0
aI0
aI0
aI0
aI0
aI0
aI0
aI0
aI0
aI0
aI0
aI0
aI0
aI0
aI0
aI0
aI0
aI0
aI0
aI0
aI0
aI0
aI0
aI0
aI0
aI0
aI0
aI0
aI0
aI0
aI0
aI0
aI0
aI0
aI0
aI0
aI0
aI0
aI0
aI0
aI0
aI0
aI0
aI0
aI0
aI0
aI0
aI0
aI0
aI0
aI0
aI0
aI0
aI0
aI0
aI0
aI0
aI0
aI0
aI0
aI0
aI0
aI0
aI0
aI0
aI0
aI0
aI0
aI0
aI0
aI0
aI0
aI0
asg19
F0
sg20
I01
sg21
g22
sg23
g24
sg25
F100
sg26
S'dXSP7=A1$bXm#ZKOejN4V2erGXXnkyh9'
p873
sg28
S'Error at Chromosome_0|math range error'
p874
ssg30
Nsg31
I0
sg32
(lp875
g1
(g34
g3
NtRp876
(dp877
g37
F0.10000000000000001
sg38
(lp878
S'0'
aS'1'
asg40
(lp879
S'1'
aS'0'
aS'0'
aS'1'
aS'1'
aS'0'
aS'0'
aS'1'
aS'1'
aS'1'
aS'1'
aS'1'
aS'1'
aS'1'
aS'1'
aS'0'
aS'1'
aS'1'
aS'1'
aS'1'
aS'0'
aS'0'
aS'0'
aS'1'
aS'1'
aS'1'
aS'1'
aS'0'
aS'0'
aS'0'
asbasg42
g43
sbag1
(g9
g3
NtRp880
(dp881
g12
(dp882
g14
Nsg15
F100
sg16
F100
sg17
(lp883
F10.999999999442107
aF45843.166739371009
aF1.5166692073950596
aF1.4237621240384559
aF1
aF20.846482107692104
aF-0.45691936518475629
aF32.6550203127575
aF1.2132685647551773
aI0
aF0.83978758764921058
aI8
aF-0.21963341607930145
aF1.2132685647551773
aF0
aF1
aI0
aF1.2724739308584507
aI0
aI0
aI0
aI0
aI0
aI0
aI0
aI0
aI0
aI0
aI0
aI0
aI0
aI0
aI0
aI0
aI0
aI0
aI0
aI0
aI0
aI0
aI0
aI0
aI0
aI0
aI0
aI0
aI0
aI0
aI0
aI0
aI0
aI0
aI0
aI0
aI0
aI0
aI0
aI0
aI0
aI0
aI0
aI0
aI0
aI0
aI0
aI0
aI0
aI0
aI0
aI0
aI0
aI0
aI0
aI0
aI0
aI0
aI0
aI0
aI0
aI0
aI0
aI0
aI0
aI0
aI0
aI0
aI0
aI0
aI0
aI0
aI0
aI0
aI0
aI0
aI0
aI0
aI0
aI0
aI0
aI0
aI0
aI0
aI0
aI0
aI0
aI0
aI0
aI0
aI0
aI0
aI0
aI0
aI0
aI0
aI0
aI0
aI0
aI0
aI0
aI0
aI0
aI0
aI0
aI0
aI0
aI0
aI0
aI0
aI0
aI0
aI0
aI0
aI0
aI0
aI0
aI0
aI0
aI0
aI0
aI0
aI0
aI0
aI0
aI0
aI0
aI0
aI0
aI0
aI0
aI0
aI0
aI0
aI0
aI0
aI0
aI0
aI0
aI0
aI0
aI0
aI0
aI0
aI0
aI0
aI0
aI0
aI0
aI0
aI0
aI0
aI0
aI0
aI0
aI0
aI0
aI0
aI0
aI0
aI0
aI0
aI0
aI0
aI0
aI0
aI0
aI0
aI0
aI0
aI0
aI0
aI0
aI0
aI0
aI0
aI0
aI0
aI0
aI0
aI0
aI0
asg19
F0
sg20
I01
sg21
g22
sg23
g24
sg25
F100
sg26
S'j>Okgrpg3KEpbAaQ9f8=bbAXCvak%776'
p884
sg28
S'Error at Chromosome_0|math range error'
p885
ssg30
Nsg31
I0
sg32
(lp886
g1
(g34
g3
NtRp887
(dp888
g37
F0.10000000000000001
sg38
(lp889
S'0'
aS'1'
asg40
(lp890
S'0'
aS'0'
aS'1'
aS'0'
aS'1'
aS'0'
aS'0'
aS'0'
aS'0'
aS'1'
aS'1'
aS'0'
aS'1'
aS'0'
aS'1'
aS'1'
aS'0'
aS'0'
aS'1'
aS'0'
aS'1'
aS'0'
aS'0'
aS'0'
aS'0'
aS'1'
aS'0'
aS'0'
aS'0'
aS'0'
asbasg42
g43
sbag1
(g9
g3
NtRp891
(dp892
g12
(dp893
g14
Nsg15
F100
sg16
F100
sg17
(lp894
F349905865.43313664
aF29947.07084924807
aF5.2590851950346386e+68
aF0
aI30
aF0.56626997596147965
aF9.5367328624754989e+20
aF1.5472912060561776
aI0
aI0
aI0
aI0
aI0
aI0
aI0
aI0
aI0
aI0
aI0
aI0
aI0
aI0
aI0
aI0
aI0
aI0
aI0
aI0
aI0
aI0
aI0
aI0
aI0
aI0
aI0
aI0
aI0
aI0
aI0
aI0
aI0
aI0
aI0
aI0
aI0
aI0
aI0
aI0
aI0
aI0
aI0
aI0
aI0
aI0
aI0
aI0
aI0
aI0
aI0
aI0
aI0
aI0
aI0
aI0
aI0
aI0
aI0
aI0
aI0
aI0
aI0
aI0
aI0
aI0
aI0
aI0
aI0
aI0
aI0
aI0
aI0
aI0
aI0
aI0
aI0
aI0
aI0
aI0
aI0
aI0
aI0
aI0
aI0
aI0
aI0
aI0
aI0
aI0
aI0
aI0
aI0
aI0
aI0
aI0
aI0
aI0
aI0
aI0
aI0
aI0
aI0
aI0
aI0
aI0
aI0
aI0
aI0
aI0
aI0
aI0
aI0
aI0
aI0
aI0
aI0
aI0
aI0
aI0
aI0
aI0
aI0
aI0
aI0
aI0
aI0
aI0
aI0
aI0
aI0
aI0
aI0
aI0
aI0
aI0
aI0
aI0
aI0
aI0
aI0
aI0
aI0
aI0
aI0
aI0
aI0
aI0
aI0
aI0
aI0
aI0
aI0
aI0
aI0
aI0
aI0
aI0
aI0
aI0
aI0
aI0
aI0
aI0
aI0
aI0
aI0
aI0
aI0
aI0
aI0
aI0
aI0
aI0
aI0
aI0
aI0
aI0
aI0
aI0
aI0
aI0
aI0
aI0
aI0
aI0
aI0
aI0
aI0
aI0
aI0
aI0
asg19
F0
sg20
I01
sg21
g22
sg23
g24
sg25
F100
sg26
S'2Tc6dwNcN@4SloqjFI47cNPm7LhJ1k@='
p895
sg28
S'Error at Chromosome_0|math range error'
p896
ssg30
Nsg31
I0
sg32
(lp897
g1
(g34
g3
NtRp898
(dp899
g37
F0.10000000000000001
sg38
(lp900
S'0'
aS'1'
asg40
(lp901
S'1'
aS'1'
aS'0'
aS'1'
aS'0'
aS'1'
aS'0'
aS'1'
aS'0'
aS'0'
aS'1'
aS'0'
aS'1'
aS'0'
aS'0'
aS'0'
aS'0'
aS'0'
aS'0'
aS'1'
aS'0'
aS'1'
aS'1'
aS'0'
aS'1'
aS'0'
aS'0'
aS'0'
aS'0'
aS'0'
asbasg42
g43
sbag1
(g9
g3
NtRp902
(dp903
g12
(dp904
g14
Nsg15
F100
sg16
F100
sg17
(lp905
F0.47197991599628375
aF2.592352764293536e+21
aF167.87857252384407
aF1.5430806348152437
aI10
aF8677.1375569006377
aF11013.232920103323
aI0
aI0
aI10
aF242582757.70489514
aF11033.232920103323
aI0
aI0
aI0
aF11023.232920103323
aI10
aI0
aI0
aI0
aI0
aI0
aI0
aI0
aI0
aI0
aI0
aI0
aI0
aI0
aI0
aI0
aI0
aI0
aI0
aI0
aI0
aI0
aI0
aI0
aI0
aI0
aI0
aI0
aI0
aI0
aI0
aI0
aI0
aI0
aI0
aI0
aI0
aI0
aI0
aI0
aI0
aI0
aI0
aI0
aI0
aI0
aI0
aI0
aI0
aI0
aI0
aI0
aI0
aI0
aI0
aI0
aI0
aI0
aI0
aI0
aI0
aI0
aI0
aI0
aI0
aI0
aI0
aI0
aI0
aI0
aI0
aI0
aI0
aI0
aI0
aI0
aI0
aI0
aI0
aI0
aI0
aI0
aI0
aI0
aI0
aI0
aI0
aI0
aI0
aI0
aI0
aI0
aI0
aI0
aI0
aI0
aI0
aI0
aI0
aI0
aI0
aI0
aI0
aI0
aI0
aI0
aI0
aI0
aI0
aI0
aI0
aI0
aI0
aI0
aI0
aI0
aI0
aI0
aI0
aI0
aI0
aI0
aI0
aI0
aI0
aI0
aI0
aI0
aI0
aI0
aI0
aI0
aI0
aI0
aI0
aI0
aI0
aI0
aI0
aI0
aI0
aI0
aI0
aI0
aI0
aI0
aI0
aI0
aI0
aI0
aI0
aI0
aI0
aI0
aI0
aI0
aI0
aI0
aI0
aI0
aI0
aI0
aI0
aI0
aI0
aI0
aI0
aI0
aI0
aI0
aI0
aI0
aI0
aI0
aI0
aI0
aI0
aI0
aI0
aI0
aI0
aI0
aI0
aI0
asg19
F0
sg20
I01
sg21
g22
sg23
g24
sg25
F100
sg26
S'krHtz$9>fShcWjUTf$ro2lkFcd<gLkHh'
p906
sg28
S'Error at Chromosome_0|math range error'
p907
ssg30
Nsg31
I0
sg32
(lp908
g1
(g34
g3
NtRp909
(dp910
g37
F0.10000000000000001
sg38
(lp911
S'0'
aS'1'
asg40
(lp912
S'1'
aS'0'
aS'1'
aS'1'
aS'0'
aS'1'
aS'1'
aS'1'
aS'1'
aS'0'
aS'0'
aS'1'
aS'1'
aS'1'
aS'1'
aS'1'
aS'0'
aS'1'
aS'0'
aS'0'
aS'1'
aS'1'
aS'1'
aS'0'
aS'0'
aS'1'
aS'0'
aS'1'
aS'0'
aS'0'
asbasg42
g43
sbag1
(g9
g3
NtRp913
(dp914
g12
(dp915
g14
Nsg15
F100
sg16
F100
sg17
(lp916
F1
aF1.5430806337590579
aF4.052356840206249e+72
aF0.4953163485157388
aF-0.94268078909979469
aF1.5430806348152437
aF4.052356840206249e+72
aF0.999999969540041
aF0
aF21
aF167.87856211999207
aF1
aI0
aF1
aI10
aI0
aI0
aI0
aI0
aI0
aI0
aI0
aI0
aI0
aI0
aI0
aI0
aI0
aI0
aI0
aI0
aI0
aI0
aI0
aI0
aI0
aI0
aI0
aI0
aI0
aI0
aI0
aI0
aI0
aI0
aI0
aI0
aI0
aI0
aI0
aI0
aI0
aI0
aI0
aI0
aI0
aI0
aI0
aI0
aI0
aI0
aI0
aI0
aI0
aI0
aI0
aI0
aI0
aI0
aI0
aI0
aI0
aI0
aI0
aI0
aI0
aI0
aI0
aI0
aI0
aI0
aI0
aI0
aI0
aI0
aI0
aI0
aI0
aI0
aI0
aI0
aI0
aI0
aI0
aI0
aI0
aI0
aI0
aI0
aI0
aI0
aI0
aI0
aI0
aI0
aI0
aI0
aI0
aI0
aI0
aI0
aI0
aI0
aI0
aI0
aI0
aI0
aI0
aI0
aI0
aI0
aI0
aI0
aI0
aI0
aI0
aI0
aI0
aI0
aI0
aI0
aI0
aI0
aI0
aI0
aI0
aI0
aI0
aI0
aI0
aI0
aI0
aI0
aI0
aI0
aI0
aI0
aI0
aI0
aI0
aI0
aI0
aI0
aI0
aI0
aI0
aI0
aI0
aI0
aI0
aI0
aI0
aI0
aI0
aI0
aI0
aI0
aI0
aI0
aI0
aI0
aI0
aI0
aI0
aI0
aI0
aI0
aI0
aI0
aI0
aI0
aI0
aI0
aI0
aI0
aI0
aI0
aI0
aI0
aI0
aI0
aI0
aI0
aI0
aI0
aI0
aI0
aI0
aI0
aI0
asg19
F0
sg20
I01
sg21
g22
sg23
g24
sg25
F100
sg26
S'9zSbrL#O%qT7CedATUplxEu1s7HqyOBK'
p917
sg28
S'Error at Chromosome_0|math range error'
p918
ssg30
Nsg31
I0
sg32
(lp919
g1
(g34
g3
NtRp920
(dp921
g37
F0.10000000000000001
sg38
(lp922
S'0'
aS'1'
asg40
(lp923
S'1'
aS'1'
aS'0'
aS'0'
aS'1'
aS'1'
aS'1'
aS'1'
aS'0'
aS'1'
aS'1'
aS'1'
aS'1'
aS'0'
aS'1'
aS'1'
aS'1'
aS'0'
aS'1'
aS'1'
aS'0'
aS'0'
aS'0'
aS'1'
aS'0'
aS'0'
aS'1'
aS'1'
aS'0'
aS'0'
asbasg42
g43
sbag1
(g9
g3
NtRp924
(dp925
g12
(dp926
g14
Nsg15
F100
sg16
F100
sg17
(lp927
F53324.523179013828
aF0.26786673688919888
aF0
aF0
aI0
aF40585.145559406454
aF1.0982799125806451
aF0.43979765888174738
aF2.0088970726893107e+87
aI0
aF27275.818205312884
aF29946.070865949761
aI20
aI40
aI0
aI40
aF0.30430458623589618
aI0
aI0
aI0
aI10
aI0
aI0
aI0
aI0
aI0
aI0
aI0
aI0
aI0
aI0
aI0
aI0
aI0
aI0
aI0
aI0
aI0
aI0
aI0
aI0
aI0
aI0
aI0
aI0
aI0
aI0
aI0
aI0
aI0
aI0
aI0
aI0
aI0
aI0
aI0
aI0
aI0
aI0
aI0
aI0
aI0
aI0
aI0
aI0
aI0
aI0
aI0
aI0
aI0
aI0
aI0
aI0
aI0
aI0
aI0
aI0
aI0
aI0
aI0
aI0
aI0
aI0
aI0
aI0
aI0
aI0
aI0
aI0
aI0
aI0
aI0
aI0
aI0
aI0
aI0
aI0
aI0
aI0
aI0
aI0
aI0
aI0
aI0
aI0
aI0
aI0
aI0
aI0
aI0
aI0
aI0
aI0
aI0
aI0
aI0
aI0
aI0
aI0
aI0
aI0
aI0
aI0
aI0
aI0
aI0
aI0
aI0
aI0
aI0
aI0
aI0
aI0
aI0
aI0
aI0
aI0
aI0
aI0
aI0
aI0
aI0
aI0
aI0
aI0
aI0
aI0
aI0
aI0
aI0
aI0
aI0
aI0
aI0
aI0
aI0
aI0
aI0
aI0
aI0
aI0
aI0
aI0
aI0
aI0
aI0
aI0
aI0
aI0
aI0
aI0
aI0
aI0
aI0
aI0
aI0
aI0
aI0
aI0
aI0
aI0
aI0
aI0
aI0
aI0
aI0
aI0
aI0
aI0
aI0
aI0
aI0
aI0
aI0
aI0
aI0
aI0
aI0
aI0
aI0
asg19
F0
sg20
I01
sg21
g22
sg23
g24
sg25
F100
sg26
S'BXncnyf5MxORJbakmDn9iQ>PEPnd8Hya'
p928
sg28
S'Error at Chromosome_0|math range error'
p929
ssg30
Nsg31
I0
sg32
(lp930
g1
(g34
g3
NtRp931
(dp932
g37
F0.10000000000000001
sg38
(lp933
S'0'
aS'1'
asg40
(lp934
S'0'
aS'1'
aS'0'
aS'1'
aS'0'
aS'0'
aS'1'
aS'0'
aS'0'
aS'1'
aS'1'
aS'1'
aS'0'
aS'0'
aS'0'
aS'0'
aS'1'
aS'0'
aS'1'
aS'1'
aS'0'
aS'0'
aS'0'
aS'0'
aS'0'
aS'1'
aS'0'
aS'1'
aS'0'
aS'0'
asbasg42
g43
sbag1
(g9
g3
NtRp935
(dp936
g12
(dp937
g14
Nsg15
F100
sg16
F100
sg17
(lp938
F9.531818063687489e+80
aF0.4710560721863799
aF8.0389295532570344
aF4.052356840206249e+72
aF11023.232920103323
aF0.41347670990383567
aF0.89493350752960321
aF0.76159415595576485
aF1
aI0
aF11013.232920103323
aF1.5430806348152437
aI0
aI0
aI0
aI20
aF0.89493350752960321
aI0
aI0
aI0
aI0
aI0
aI0
aI0
aI0
aI0
aI0
aI0
aI0
aI0
aI0
aI0
aI0
aI0
aI0
aI0
aI0
aI0
aI0
aI0
aI0
aI0
aI0
aI0
aI0
aI0
aI0
aI0
aI0
aI0
aI0
aI0
aI0
aI0
aI0
aI0
aI0
aI0
aI0
aI0
aI0
aI0
aI0
aI0
aI0
aI0
aI0
aI0
aI0
aI0
aI0
aI0
aI0
aI0
aI0
aI0
aI0
aI0
aI0
aI0
aI0
aI0
aI0
aI0
aI0
aI0
aI0
aI0
aI0
aI0
aI0
aI0
aI0
aI0
aI0
aI0
aI0
aI0
aI0
aI0
aI0
aI0
aI0
aI0
aI0
aI0
aI0
aI0
aI0
aI0
aI0
aI0
aI0
aI0
aI0
aI0
aI0
aI0
aI0
aI0
aI0
aI0
aI0
aI0
aI0
aI0
aI0
aI0
aI0
aI0
aI0
aI0
aI0
aI0
aI0
aI0
aI0
aI0
aI0
aI0
aI0
aI0
aI0
aI0
aI0
aI0
aI0
aI0
aI0
aI0
aI0
aI0
aI0
aI0
aI0
aI0
aI0
aI0
aI0
aI0
aI0
aI0
aI0
aI0
aI0
aI0
aI0
aI0
aI0
aI0
aI0
aI0
aI0
aI0
aI0
aI0
aI0
aI0
aI0
aI0
aI0
aI0
aI0
aI0
aI0
aI0
aI0
aI0
aI0
aI0
aI0
aI0
aI0
aI0
aI0
aI0
aI0
aI0
aI0
aI0
asg19
F0
sg20
I01
sg21
g22
sg23
g24
sg25
F100
sg26
S'2Q25R7wo&nd8@Iit4?ylU4OYo2YSo>?V'
p939
sg28
S'Error at Chromosome_0|math range error'
p940
ssg30
Nsg31
I0
sg32
(lp941
g1
(g34
g3
NtRp942
(dp943
g37
F0.10000000000000001
sg38
(lp944
S'0'
aS'1'
asg40
(lp945
S'0'
aS'1'
aS'1'
aS'1'
aS'1'
aS'0'
aS'1'
aS'0'
aS'1'
aS'1'
aS'0'
aS'1'
aS'1'
aS'1'
aS'1'
aS'0'
aS'0'
aS'1'
aS'1'
aS'0'
aS'0'
aS'1'
aS'1'
aS'1'
aS'1'
aS'1'
aS'1'
aS'0'
aS'0'
aS'0'
asbasg42
g43
sbag1
(g9
g3
NtRp946
(dp947
g12
(dp948
g14
Nsg15
F100
sg16
F100
sg17
(lp949
F1.4461728085856087
aF5443.0767973276834
aI80
aF2.4463520074491623
aI0
aF4.052356840206249e+72
aF29946.069954067745
aF5.8163792453876901
aI0
aI-3
aI-3
aF1.5430806348152437
aI0
aI-3
aI0
aI0
aF4.052356840206249e+72
aF2.4463520074491623
aI0
aI0
aI0
aI0
aI0
aI0
aI0
aI0
aI0
aI0
aI0
aI0
aI0
aI0
aI0
aI0
aI0
aI0
aI0
aI0
aI0
aI0
aI0
aI0
aI0
aI0
aI0
aI0
aI0
aI0
aI0
aI0
aI0
aI0
aI0
aI0
aI0
aI0
aI0
aI0
aI0
aI0
aI0
aI0
aI0
aI0
aI0
aI0
aI0
aI0
aI0
aI0
aI0
aI0
aI0
aI0
aI0
aI0
aI0
aI0
aI0
aI0
aI0
aI0
aI0
aI0
aI0
aI0
aI0
aI0
aI0
aI0
aI0
aI0
aI0
aI0
aI0
aI0
aI0
aI0
aI0
aI0
aI0
aI0
aI0
aI0
aI0
aI0
aI0
aI0
aI0
aI0
aI0
aI0
aI0
aI0
aI0
aI0
aI0
aI0
aI0
aI0
aI0
aI0
aI0
aI0
aI0
aI0
aI0
aI0
aI0
aI0
aI0
aI0
aI0
aI0
aI0
aI0
aI0
aI0
aI0
aI0
aI0
aI0
aI0
aI0
aI0
aI0
aI0
aI0
aI0
aI0
aI0
aI0
aI0
aI0
aI0
aI0
aI0
aI0
aI0
aI0
aI0
aI0
aI0
aI0
aI0
aI0
aI0
aI0
aI0
aI0
aI0
aI0
aI0
aI0
aI0
aI0
aI0
aI0
aI0
aI0
aI0
aI0
aI0
aI0
aI0
aI0
aI0
aI0
aI0
aI0
aI0
aI0
aI0
aI0
aI0
aI0
aI0
aI0
aI0
aI0
asg19
F0
sg20
I01
sg21
g22
sg23
g24
sg25
F100
sg26
S'vvZiRy6cxPCGs1FujHVgf7ZitHknnPAO'
p950
sg28
S'Error at Chromosome_0|math range error'
p951
ssg30
Nsg31
I0
sg32
(lp952
g1
(g34
g3
NtRp953
(dp954
g37
F0.10000000000000001
sg38
(lp955
S'0'
aS'1'
asg40
(lp956
S'0'
aS'0'
aS'0'
aS'1'
aS'1'
aS'1'
aS'1'
aS'0'
aS'0'
aS'0'
aS'0'
aS'1'
aS'0'
aS'1'
aS'1'
aS'1'
aS'0'
aS'1'
aS'1'
aS'0'
aS'0'
aS'0'
aS'1'
aS'0'
aS'0'
aS'1'
aS'0'
aS'0'
aS'0'
aS'0'
asbasg42
g43
sbag1
(g9
g3
NtRp957
(dp958
g12
(dp959
g14
Nsg15
F100
sg16
F100
sg17
(lp960
F0.2342012496945772
aF0
aI-5
aI0
aI0
aF878.04233478956291
aF1413.1762518144064
aF48999976499.581306
aF3.7621956910836314
aI-1
aF46837.709350461126
aF6224.4902698023125
aF1.5430806348152437
aF11013.232920103323
aF242582597.70489514
aI40
aF1.5430806348152437
aF1
aI0
aI0
aI0
aI0
aI0
aI0
aI0
aI0
aI0
aI0
aI0
aI0
aI0
aI0
aI0
aI0
aI0
aI0
aI0
aI0
aI0
aI0
aI0
aI0
aI0
aI0
aI0
aI0
aI0
aI0
aI0
aI0
aI0
aI0
aI0
aI0
aI0
aI0
aI0
aI0
aI0
aI0
aI0
aI0
aI0
aI0
aI0
aI0
aI0
aI0
aI0
aI0
aI0
aI0
aI0
aI0
aI0
aI0
aI0
aI0
aI0
aI0
aI0
aI0
aI0
aI0
aI0
aI0
aI0
aI0
aI0
aI0
aI0
aI0
aI0
aI0
aI0
aI0
aI0
aI0
aI0
aI0
aI0
aI0
aI0
aI0
aI0
aI0
aI0
aI0
aI0
aI0
aI0
aI0
aI0
aI0
aI0
aI0
aI0
aI0
aI0
aI0
aI0
aI0
aI0
aI0
aI0
aI0
aI0
aI0
aI0
aI0
aI0
aI0
aI0
aI0
aI0
aI0
aI0
aI0
aI0
aI0
aI0
aI0
aI0
aI0
aI0
aI0
aI0
aI0
aI0
aI0
aI0
aI0
aI0
aI0
aI0
aI0
aI0
aI0
aI0
aI0
aI0
aI0
aI0
aI0
aI0
aI0
aI0
aI0
aI0
aI0
aI0
aI0
aI0
aI0
aI0
aI0
aI0
aI0
aI0
aI0
aI0
aI0
aI0
aI0
aI0
aI0
aI0
aI0
aI0
aI0
aI0
aI0
aI0
aI0
aI0
aI0
aI0
aI0
aI0
aI0
asg19
F0
sg20
I01
sg21
g22
sg23
g24
sg25
F100
sg26
S'Bj2LZCTCzDmcstoXX#fjtzagn3&niYwi'
p961
sg28
S'Error at Chromosome_0|math range error'
p962
ssg30
Nsg31
I0
sg32
(lp963
g1
(g34
g3
NtRp964
(dp965
g37
F0.10000000000000001
sg38
(lp966
S'0'
aS'1'
asg40
(lp967
S'1'
aS'0'
aS'1'
aS'1'
aS'0'
aS'1'
aS'1'
aS'0'
aS'1'
aS'1'
aS'1'
aS'0'
aS'0'
aS'0'
aS'1'
aS'1'
aS'0'
aS'0'
aS'1'
aS'0'
aS'0'
aS'1'
aS'1'
aS'0'
aS'0'
aS'1'
aS'1'
aS'1'
aS'0'
aS'0'
asbasg42
g43
sbag1
(g9
g3
NtRp968
(dp969
g12
(dp970
g14
Nsg15
F100
sg16
F100
sg17
(lp971
F47929.269656281322
aF-2.9950052294089535
aF1
aI0
aI0
aF35.446352007449164
aI60
aF242582635.70489514
aF1
aI0
aI0
aI17
aF4.052356840206249e+72
aI0
aI0
aI0
aI20
aI0
aI0
aI0
aI0
aI0
aI0
aI0
aI0
aI0
aI0
aI0
aI0
aI0
aI0
aI0
aI0
aI0
aI0
aI0
aI0
aI0
aI0
aI0
aI0
aI0
aI0
aI0
aI0
aI0
aI0
aI0
aI0
aI0
aI0
aI0
aI0
aI0
aI0
aI0
aI0
aI0
aI0
aI0
aI0
aI0
aI0
aI0
aI0
aI0
aI0
aI0
aI0
aI0
aI0
aI0
aI0
aI0
aI0
aI0
aI0
aI0
aI0
aI0
aI0
aI0
aI0
aI0
aI0
aI0
aI0
aI0
aI0
aI0
aI0
aI0
aI0
aI0
aI0
aI0
aI0
aI0
aI0
aI0
aI0
aI0
aI0
aI0
aI0
aI0
aI0
aI0
aI0
aI0
aI0
aI0
aI0
aI0
aI0
aI0
aI0
aI0
aI0
aI0
aI0
aI0
aI0
aI0
aI0
aI0
aI0
aI0
aI0
aI0
aI0
aI0
aI0
aI0
aI0
aI0
aI0
aI0
aI0
aI0
aI0
aI0
aI0
aI0
aI0
aI0
aI0
aI0
aI0
aI0
aI0
aI0
aI0
aI0
aI0
aI0
aI0
aI0
aI0
aI0
aI0
aI0
aI0
aI0
aI0
aI0
aI0
aI0
aI0
aI0
aI0
aI0
aI0
aI0
aI0
aI0
aI0
aI0
aI0
aI0
aI0
aI0
aI0
aI0
aI0
aI0
aI0
aI0
aI0
aI0
aI0
aI0
aI0
aI0
aI0
aI0
aI0
aI0
aI0
aI0
asg19
F0
sg20
I01
sg21
g22
sg23
g24
sg25
F100
sg26
S'exmngXjYxf3<SBzv3Ik#Rc6UoLfVBDAO'
p972
sg28
S'Error at Chromosome_0|math range error'
p973
ssg30
Nsg31
I0
sg32
(lp974
g1
(g34
g3
NtRp975
(dp976
g37
F0.10000000000000001
sg38
(lp977
S'0'
aS'1'
asg40
(lp978
S'1'
aS'1'
aS'1'
aS'0'
aS'1'
aS'0'
aS'0'
aS'1'
aS'1'
aS'0'
aS'1'
aS'0'
aS'0'
aS'1'
aS'1'
aS'0'
aS'1'
aS'0'
aS'0'
aS'1'
aS'1'
aS'0'
aS'1'
aS'1'
aS'0'
aS'1'
aS'0'
aS'0'
aS'0'
aS'0'
asbasg42
g43
sbag1
(g9
g3
NtRp979
(dp980
g12
(dp981
g14
Nsg15
F100
sg16
F100
sg17
(lp982
F11012.232913959115
aF0.41347670990383567
aF29947.070865949761
aF1.1646612298707746
aF0
aF0.99999999981170551
aF0.76159415595576485
aF11013.232920103323
aF11013.232920103323
aI0
aI0
aF2.4463520074491623
aF242582597.70489514
aI0
aI0
aI0
aI0
aI0
aI0
aI0
aI0
aI0
aI0
aI0
aI0
aI0
aI0
aI0
aI0
aI0
aI0
aI0
aI0
aI0
aI0
aI0
aI0
aI0
aI0
aI0
aI0
aI0
aI0
aI0
aI0
aI0
aI0
aI0
aI0
aI0
aI0
aI0
aI0
aI0
aI0
aI0
aI0
aI0
aI0
aI0
aI0
aI0
aI0
aI0
aI0
aI0
aI0
aI0
aI0
aI0
aI0
aI0
aI0
aI0
aI0
aI0
aI0
aI0
aI0
aI0
aI0
aI0
aI0
aI0
aI0
aI0
aI0
aI0
aI0
aI0
aI0
aI0
aI0
aI0
aI0
aI0
aI0
aI0
aI0
aI0
aI0
aI0
aI0
aI0
aI0
aI0
aI0
aI0
aI0
aI0
aI0
aI0
aI0
aI0
aI0
aI0
aI0
aI0
aI0
aI0
aI0
aI0
aI0
aI0
aI0
aI0
aI0
aI0
aI0
aI0
aI0
aI0
aI0
aI0
aI0
aI0
aI0
aI0
aI0
aI0
aI0
aI0
aI0
aI0
aI0
aI0
aI0
aI0
aI0
aI0
aI0
aI0
aI0
aI0
aI0
aI0
aI0
aI0
aI0
aI0
aI0
aI0
aI0
aI0
aI0
aI0
aI0
aI0
aI0
aI0
aI0
aI0
aI0
aI0
aI0
aI0
aI0
aI0
aI0
aI0
aI0
aI0
aI0
aI0
aI0
aI0
aI0
aI0
aI0
aI0
aI0
aI0
aI0
aI0
aI0
aI0
aI0
aI0
aI0
aI0
asg19
F0
sg20
I01
sg21
g22
sg23
g24
sg25
F100
sg26
S'8M1c2e93iAAO>f&=6gT73M2dhQLuAcFj'
p983
sg28
S'Error at Chromosome_0|math range error'
p984
ssg30
Nsg31
I0
sg32
(lp985
g1
(g34
g3
NtRp986
(dp987
g37
F0.10000000000000001
sg38
(lp988
S'0'
aS'1'
asg40
(lp989
S'0'
aS'1'
aS'1'
aS'1'
aS'0'
aS'0'
aS'1'
aS'0'
aS'0'
aS'1'
aS'1'
aS'0'
aS'0'
aS'1'
aS'0'
aS'1'
aS'0'
aS'1'
aS'0'
aS'1'
aS'0'
aS'0'
aS'0'
aS'1'
aS'0'
aS'0'
aS'0'
aS'0'
aS'0'
aS'0'
asbasg42
g43
sbag1
(g9
g3
NtRp990
(dp991
g12
(dp992
g14
Nsg15
F100
sg16
F100
sg17
(lp993
F2.7187465432560997e+86
aF242582804.70489514
aF0.76159415595576485
aF1
aF29937.070865949761
aF1
aF1.0641310702489788
aF1.0114416779960145
aF4051.5420254925939
aI0
aF4.0523549144604667e+72
aF0.89493350752960321
aF1
aF1.5430806348152437
aI0
aI0
aF520.98254303833039
aF4.052356840206249e+72
aI0
aI0
aI0
aF5.8163792453876901
aF1.5430806348152437
aI0
aI0
aI0
aF1.5430806348152437
aI0
aI0
aI0
aI0
aI0
aI0
aI0
aI0
aI0
aI0
aI0
aI0
aI0
aI0
aI0
aI0
aI0
aI0
aI0
aI0
aI0
aI0
aI0
aI0
aI0
aI0
aI0
aI0
aI0
aI0
aI0
aI0
aI0
aI0
aI0
aI0
aI0
aI0
aI0
aI0
aI0
aI0
aI0
aI0
aI0
aI0
aI0
aI0
aI0
aI0
aI0
aI0
aI0
aI0
aI0
aI0
aI0
aI0
aI0
aI0
aI0
aI0
aI0
aI0
aI0
aI0
aI0
aI0
aI0
aI0
aI0
aI0
aI0
aI0
aI0
aI0
aI0
aI0
aI0
aI0
aI0
aI0
aI0
aI0
aI0
aI0
aI0
aI0
aI0
aI0
aI0
aI0
aI0
aI0
aI0
aI0
aI0
aI0
aI0
aI0
aI0
aI0
aI0
aI0
aI0
aI0
aI0
aI0
aI0
aI0
aI0
aI0
aI0
aI0
aI0
aI0
aI0
aI0
aI0
aI0
aI0
aI0
aI0
aI0
aI0
aI0
aI0
aI0
aI0
aI0
aI0
aI0
aI0
aI0
aI0
aI0
aI0
aI0
aI0
aI0
aI0
aI0
aI0
aI0
aI0
aI0
aI0
aI0
aI0
aI0
aI0
aI0
aI0
aI0
aI0
aI0
aI0
aI0
aI0
aI0
aI0
aI0
aI0
aI0
aI0
aI0
aI0
aI0
aI0
aI0
aI0
aI0
aI0
asg19
F0
sg20
I01
sg21
g22
sg23
g24
sg25
F100
sg26
S'IasShAJeG#qmDXv@%NBdld47nxMEs6eO'
p994
sg28
S'Error at Chromosome_0|math range error'
p995
ssg30
Nsg31
I0
sg32
(lp996
g1
(g34
g3
NtRp997
(dp998
g37
F0.10000000000000001
sg38
(lp999
S'0'
aS'1'
asg40
(lp1000
S'0'
aS'0'
aS'1'
aS'0'
aS'0'
aS'0'
aS'1'
aS'1'
aS'0'
aS'0'
aS'0'
aS'1'
aS'0'
aS'0'
aS'0'
aS'0'
aS'1'
aS'1'
aS'0'
aS'0'
aS'0'
aS'0'
aS'0'
aS'0'
aS'1'
aS'1'
aS'1'
aS'1'
aS'0'
aS'0'
asbasg42
g43
sbag1
(g9
g3
NtRp1001
(dp1002
g12
(dp1003
g14
Nsg15
F100
sg16
F100
sg17
(lp1004
F16652.731403452432
aF140.87857252384407
aF32.4354654077422
aI20
aI0
aF5343237290802.2314
aF1.4978378939434437e+24
aF2130182.7845431836
aI0
aI0
aF0.99999999999997469
aF270104.21998785646
aF11.762195691083631
aF5.8163792453876901
aI0
aI0
aI0
aI0
aI0
aI0
aI0
aI0
aI0
aI0
aI0
aI0
aI0
aI0
aI0
aI0
aI0
aI0
aI0
aI0
aI0
aI0
aI0
aI0
aI0
aI0
aI0
aI0
aI0
aI0
aI0
aI0
aI0
aI0
aI0
aI0
aI0
aI0
aI0
aI0
aI0
aI0
aI0
aI0
aI0
aI0
aI0
aI0
aI0
aI0
aI0
aI0
aI0
aI0
aI0
aI0
aI0
aI0
aI0
aI0
aI0
aI0
aI0
aI0
aI0
aI0
aI0
aI0
aI0
aI0
aI0
aI0
aI0
aI0
aI0
aI0
aI0
aI0
aI0
aI0
aI0
aI0
aI0
aI0
aI0
aI0
aI0
aI0
aI0
aI0
aI0
aI0
aI0
aI0
aI0
aI0
aI0
aI0
aI0
aI0
aI0
aI0
aI0
aI0
aI0
aI0
aI0
aI0
aI0
aI0
aI0
aI0
aI0
aI0
aI0
aI0
aI0
aI0
aI0
aI0
aI0
aI0
aI0
aI0
aI0
aI0
aI0
aI0
aI0
aI0
aI0
aI0
aI0
aI0
aI0
aI0
aI0
aI0
aI0
aI0
aI0
aI0
aI0
aI0
aI0
aI0
aI0
aI0
aI0
aI0
aI0
aI0
aI0
aI0
aI0
aI0
aI0
aI0
aI0
aI0
aI0
aI0
aI0
aI0
aI0
aI0
aI0
aI0
aI0
aI0
aI0
aI0
aI0
aI0
aI0
aI0
aI0
aI0
aI0
aI0
aI0
aI0
aI0
aI0
aI0
aI0
asg19
F0
sg20
I01
sg21
g22
sg23
g24
sg25
F100
sg26
S'xdS9VKMeu%po=nfHNgAo2&$SRSqxM$fY'
p1005
sg28
S'Error at Chromosome_0|math range error'
p1006
ssg30
Nsg31
I0
sg32
(lp1007
g1
(g34
g3
NtRp1008
(dp1009
g37
F0.10000000000000001
sg38
(lp1010
S'0'
aS'1'
asg40
(lp1011
S'0'
aS'0'
aS'0'
aS'0'
aS'0'
aS'1'
aS'0'
aS'0'
aS'1'
aS'0'
aS'0'
aS'0'
aS'1'
aS'1'
aS'1'
aS'1'
aS'0'
aS'0'
aS'1'
aS'1'
aS'0'
aS'1'
aS'1'
aS'0'
aS'1'
aS'1'
aS'0'
aS'1'
aS'0'
aS'0'
asbasg42
g43
sbag1
(g9
g3
NtRp1012
(dp1013
g12
(dp1014
g14
Nsg15
F100
sg16
F100
sg17
(lp1015
F0.34190681358295977
aF23619.905235409144
aI10
aI0
aI0
aF0.76159415316682089
aF1
aF11
aF2.4463520074491623
aF0
aF0.99999999944210638
aF0.999999969540041
aF1.1511285919839405
aF1.5430806348152437
aI0
aI0
aI0
aI0
aI0
aI0
aI0
aI0
aI0
aI0
aI0
aI0
aI0
aI0
aI0
aI0
aI0
aI0
aI0
aI0
aI0
aI0
aI0
aI0
aI0
aI0
aI0
aI0
aI0
aI0
aI0
aI0
aI0
aI0
aI0
aI0
aI0
aI0
aI0
aI0
aI0
aI0
aI0
aI0
aI0
aI0
aI0
aI0
aI0
aI0
aI0
aI0
aI0
aI0
aI0
aI0
aI0
aI0
aI0
aI0
aI0
aI0
aI0
aI0
aI0
aI0
aI0
aI0
aI0
aI0
aI0
aI0
aI0
aI0
aI0
aI0
aI0
aI0
aI0
aI0
aI0
aI0
aI0
aI0
aI0
aI0
aI0
aI0
aI0
aI0
aI0
aI0
aI0
aI0
aI0
aI0
aI0
aI0
aI0
aI0
aI0
aI0
aI0
aI0
aI0
aI0
aI0
aI0
aI0
aI0
aI0
aI0
aI0
aI0
aI0
aI0
aI0
aI0
aI0
aI0
aI0
aI0
aI0
aI0
aI0
aI0
aI0
aI0
aI0
aI0
aI0
aI0
aI0
aI0
aI0
aI0
aI0
aI0
aI0
aI0
aI0
aI0
aI0
aI0
aI0
aI0
aI0
aI0
aI0
aI0
aI0
aI0
aI0
aI0
aI0
aI0
aI0
aI0
aI0
aI0
aI0
aI0
aI0
aI0
aI0
aI0
aI0
aI0
aI0
aI0
aI0
aI0
aI0
aI0
aI0
aI0
aI0
aI0
aI0
aI0
aI0
aI0
aI0
aI0
aI0
aI0
asg19
F0
sg20
I01
sg21
g22
sg23
g24
sg25
F100
sg26
S'iOemn43L>TJv8YSg5wHBD=IIPEuNAmFx'
p1016
sg28
S'Error at Chromosome_0|math range error'
p1017
ssg30
Nsg31
I0
sg32
(lp1018
g1
(g34
g3
NtRp1019
(dp1020
g37
F0.10000000000000001
sg38
(lp1021
S'0'
aS'1'
asg40
(lp1022
S'1'
aS'0'
aS'1'
aS'0'
aS'0'
aS'0'
aS'0'
aS'1'
aS'1'
aS'1'
aS'1'
aS'0'
aS'0'
aS'0'
aS'0'
aS'1'
aS'0'
aS'1'
aS'1'
aS'0'
aS'0'
aS'0'
aS'0'
aS'1'
aS'1'
aS'0'
aS'1'
aS'0'
aS'0'
aS'0'
asbasg42
g43
sbag1
(g9
g3
NtRp1023
(dp1024
g12
(dp1025
g14
Nsg15
F100
sg16
F100
sg17
(lp1026
F8.6963744427112998e+17
aF7.0000159402494759
aF1
aF1
aF2.0088970726893107e+87
aF-6.9920455700292887
aF3697736.8338995399
aF4.052356840206249e+72
aI-1
aI0
aF3.030582828956307e+58
aF29937.070865949761
aF242582597.70489514
aF29937.070865949761
aI0
aF2.4047007272387049
aI0
aI0
aI0
aI0
aI0
aI0
aI0
aI0
aI0
aI0
aI0
aI0
aI0
aI0
aI0
aI0
aI0
aI0
aI0
aI0
aI0
aI0
aI0
aI0
aI0
aI0
aI0
aI0
aI0
aI0
aI0
aI0
aI0
aI0
aI0
aI0
aI0
aI0
aI0
aI0
aI0
aI0
aI0
aI0
aI0
aI0
aI0
aI0
aI0
aI0
aI0
aI0
aI0
aI0
aI0
aI0
aI0
aI0
aI0
aI0
aI0
aI0
aI0
aI0
aI0
aI0
aI0
aI0
aI0
aI0
aI0
aI0
aI0
aI0
aI0
aI0
aI0
aI0
aI0
aI0
aI0
aI0
aI0
aI0
aI0
aI0
aI0
aI0
aI0
aI0
aI0
aI0
aI0
aI0
aI0
aI0
aI0
aI0
aI0
aI0
aI0
aI0
aI0
aI0
aI0
aI0
aI0
aI0
aI0
aI0
aI0
aI0
aI0
aI0
aI0
aI0
aI0
aI0
aI0
aI0
aI0
aI0
aI0
aI0
aI0
aI0
aI0
aI0
aI0
aI0
aI0
aI0
aI0
aI0
aI0
aI0
aI0
aI0
aI0
aI0
aI0
aI0
aI0
aI0
aI0
aI0
aI0
aI0
aI0
aI0
aI0
aI0
aI0
aI0
aI0
aI0
aI0
aI0
aI0
aI0
aI0
aI0
aI0
aI0
aI0
aI0
aI0
aI0
aI0
aI0
aI0
aI0
aI0
aI0
aI0
aI0
aI0
aI0
aI0
aI0
aI0
aI0
aI0
aI0
asg19
F0
sg20
I01
sg21
g22
sg23
g24
sg25
F100
sg26
S'v72rGu?HO$8Z6CBW=RKlkF&tdMSE&IyG'
p1027
sg28
S'Error at Chromosome_0|math range error'
p1028
ssg30
Nsg31
I0
sg32
(lp1029
g1
(g34
g3
NtRp1030
(dp1031
g37
F0.10000000000000001
sg38
(lp1032
S'0'
aS'1'
asg40
(lp1033
S'1'
aS'0'
aS'0'
aS'0'
aS'1'
aS'1'
aS'0'
aS'1'
aS'0'
aS'0'
aS'1'
aS'0'
aS'1'
aS'1'
aS'1'
aS'0'
aS'0'
aS'1'
aS'0'
aS'0'
aS'1'
aS'1'
aS'0'
aS'0'
aS'1'
aS'0'
aS'0'
aS'1'
aS'0'
aS'0'
asbasg42
g43
sbag1
(g9
g3
NtRp1034
(dp1035
g12
(dp1036
g14
Nsg15
F100
sg16
F100
sg17
(lp1037
F-0.77114365941167873
aF5343237290802.2314
aI0
aI0
aI0
aF30034.070865949761
aF216393316.6715343
aF21.543080629970703
aF1.5430806348152437
aI0
aF22695886825755.891
aF2800894956.7252998
aF11053.232920103323
aF2.4463520074491623
aF1
aF2.4463520074491623
aF29937.070865949761
aF167.87857252384407
aF1
aI0
aI0
aI0
aI0
aI0
aI0
aI0
aI0
aI0
aI0
aI0
aI0
aI0
aI0
aI0
aI0
aI0
aI0
aI0
aI0
aI0
aI0
aI0
aI0
aI0
aI0
aI0
aI0
aI0
aI0
aI0
aI0
aI0
aI0
aI0
aI0
aI0
aI0
aI0
aI0
aI0
aI0
aI0
aI0
aI0
aI0
aI0
aI0
aI0
aI0
aI0
aI0
aI0
aI0
aI0
aI0
aI0
aI0
aI0
aI0
aI0
aI0
aI0
aI0
aI0
aI0
aI0
aI0
aI0
aI0
aI0
aI0
aI0
aI0
aI0
aI0
aI0
aI0
aI0
aI0
aI0
aI0
aI0
aI0
aI0
aI0
aI0
aI0
aI0
aI0
aI0
aI0
aI0
aI0
aI0
aI0
aI0
aI0
aI0
aI0
aI0
aI0
aI0
aI0
aI0
aI0
aI0
aI0
aI0
aI0
aI0
aI0
aI0
aI0
aI0
aI0
aI0
aI0
aI0
aI0
aI0
aI0
aI0
aI0
aI0
aI0
aI0
aI0
aI0
aI0
aI0
aI0
aI0
aI0
aI0
aI0
aI0
aI0
aI0
aI0
aI0
aI0
aI0
aI0
aI0
aI0
aI0
aI0
aI0
aI0
aI0
aI0
aI0
aI0
aI0
aI0
aI0
aI0
aI0
aI0
aI0
aI0
aI0
aI0
aI0
aI0
aI0
aI0
aI0
aI0
aI0
aI0
aI0
aI0
aI0
aI0
aI0
aI0
aI0
aI0
aI0
asg19
F0
sg20
I01
sg21
g22
sg23
g24
sg25
F100
sg26
S'LuEy9qdzdgVu&Q=CILctcbnUPrkziy&N'
p1038
sg28
S'Error at Chromosome_0|math range error'
p1039
ssg30
Nsg31
I0
sg32
(lp1040
g1
(g34
g3
NtRp1041
(dp1042
g37
F0.10000000000000001
sg38
(lp1043
S'0'
aS'1'
asg40
(lp1044
S'1'
aS'0'
aS'0'
aS'0'
aS'1'
aS'1'
aS'1'
aS'0'
aS'1'
aS'1'
aS'1'
aS'1'
aS'0'
aS'0'
aS'1'
aS'0'
aS'1'
aS'1'
aS'1'
aS'1'
aS'0'
aS'1'
aS'1'
aS'1'
aS'0'
aS'1'
aS'0'
aS'1'
aS'0'
aS'0'
asbasg42
g43
sbag1
(g9
g3
NtRp1045
(dp1046
g12
(dp1047
g14
Nsg15
F100
sg16
F100
sg17
(lp1048
F-1
aF-3.953652993891088
aI0
aF2.4463520074491623
aF11033.232920103323
aF39.816379245387694
aF8.3880189017917139
aF1.5430806348152437
aI0
aI0
aI18
aF2.933726042427284
aI0
aI0
aI0
aI0
aI0
aI0
aI0
aI0
aI0
aI0
aI0
aI0
aI0
aI0
aI0
aI0
aI0
aI0
aI0
aI0
aI0
aI0
aI0
aI0
aI0
aI0
aI0
aI0
aI0
aI0
aI0
aI0
aI0
aI0
aI0
aI0
aI0
aI0
aI0
aI0
aI0
aI0
aI0
aI0
aI0
aI0
aI0
aI0
aI0
aI0
aI0
aI0
aI0
aI0
aI0
aI0
aI0
aI0
aI0
aI0
aI0
aI0
aI0
aI0
aI0
aI0
aI0
aI0
aI0
aI0
aI0
aI0
aI0
aI0
aI0
aI0
aI0
aI0
aI0
aI0
aI0
aI0
aI0
aI0
aI0
aI0
aI0
aI0
aI0
aI0
aI0
aI0
aI0
aI0
aI0
aI0
aI0
aI0
aI0
aI0
aI0
aI0
aI0
aI0
aI0
aI0
aI0
aI0
aI0
aI0
aI0
aI0
aI0
aI0
aI0
aI0
aI0
aI0
aI0
aI0
aI0
aI0
aI0
aI0
aI0
aI0
aI0
aI0
aI0
aI0
aI0
aI0
aI0
aI0
aI0
aI0
aI0
aI0
aI0
aI0
aI0
aI0
aI0
aI0
aI0
aI0
aI0
aI0
aI0
aI0
aI0
aI0
aI0
aI0
aI0
aI0
aI0
aI0
aI0
aI0
aI0
aI0
aI0
aI0
aI0
aI0
aI0
aI0
aI0
aI0
aI0
aI0
aI0
aI0
aI0
aI0
aI0
aI0
aI0
aI0
aI0
aI0
aI0
aI0
aI0
aI0
aI0
aI0
asg19
F0
sg20
I01
sg21
g22
sg23
g24
sg25
F100
sg26
S'VjkJCELAuX4eALrvEfJ#d$VmX$uJTfqN'
p1049
sg28
S'Error at Chromosome_0|math range error'
p1050
ssg30
Nsg31
I0
sg32
(lp1051
g1
(g34
g3
NtRp1052
(dp1053
g37
F0.10000000000000001
sg38
(lp1054
S'0'
aS'1'
asg40
(lp1055
S'0'
aS'1'
aS'0'
aS'1'
aS'0'
aS'1'
aS'0'
aS'1'
aS'1'
aS'0'
aS'1'
aS'1'
aS'1'
aS'1'
aS'0'
aS'0'
aS'0'
aS'1'
aS'0'
aS'1'
aS'0'
aS'0'
aS'0'
aS'0'
aS'1'
aS'0'
aS'0'
aS'1'
aS'0'
aS'0'
asbasg42
g43
sbag1
(g9
g3
NtRp1056
(dp1057
g12
(dp1058
g14
Nsg15
F100
sg16
F100
sg17
(lp1059
F-0.55943388410526429
aF11.54308063453559
aF1
aF4.052356840206249e+72
aI0
aF11023.232920103323
aF29494.594592444482
aF0.99999999944210638
aF1
aF1
aF1
aF11013.232920103323
aF11053.232920103323
aI0
aI0
aI0
aI0
aI0
aI0
aI0
aI0
aI0
aI0
aI0
aI0
aI0
aI0
aI0
aI0
aI0
aI0
aI0
aI0
aI0
aI0
aI0
aI0
aI0
aI0
aI0
aI0
aI0
aI0
aI0
aI0
aI0
aI0
aI0
aI0
aI0
aI0
aI0
aI0
aI0
aI0
aI0
aI0
aI0
aI0
aI0
aI0
aI0
aI0
aI0
aI0
aI0
aI0
aI0
aI0
aI0
aI0
aI0
aI0
aI0
aI0
aI0
aI0
aI0
aI0
aI0
aI0
aI0
aI0
aI0
aI0
aI0
aI0
aI0
aI0
aI0
aI0
aI0
aI0
aI0
aI0
aI0
aI0
aI0
aI0
aI0
aI0
aI0
aI0
aI0
aI0
aI0
aI0
aI0
aI0
aI0
aI0
aI0
aI0
aI0
aI0
aI0
aI0
aI0
aI0
aI0
aI0
aI0
aI0
aI0
aI0
aI0
aI0
aI0
aI0
aI0
aI0
aI0
aI0
aI0
aI0
aI0
aI0
aI0
aI0
aI0
aI0
aI0
aI0
aI0
aI0
aI0
aI0
aI0
aI0
aI0
aI0
aI0
aI0
aI0
aI0
aI0
aI0
aI0
aI0
aI0
aI0
aI0
aI0
aI0
aI0
aI0
aI0
aI0
aI0
aI0
aI0
aI0
aI0
aI0
aI0
aI0
aI0
aI0
aI0
aI0
aI0
aI0
aI0
aI0
aI0
aI0
aI0
aI0
aI0
aI0
aI0
aI0
aI0
aI0
aI0
aI0
aI0
aI0
aI0
aI0
asg19
F0
sg20
I01
sg21
g22
sg23
g24
sg25
F100
sg26
S'L63@OjscV=Z%A?9kEtBdf2PbFa7XGGje'
p1060
sg28
S'Error at Chromosome_0|math range error'
p1061
ssg30
Nsg31
I0
sg32
(lp1062
g1
(g34
g3
NtRp1063
(dp1064
g37
F0.10000000000000001
sg38
(lp1065
S'0'
aS'1'
asg40
(lp1066
S'0'
aS'0'
aS'0'
aS'1'
aS'0'
aS'1'
aS'1'
aS'0'
aS'0'
aS'0'
aS'1'
aS'0'
aS'1'
aS'1'
aS'0'
aS'1'
aS'1'
aS'1'
aS'1'
aS'1'
aS'1'
aS'0'
aS'0'
aS'0'
aS'1'
aS'1'
aS'1'
aS'0'
aS'0'
aS'0'
asbasg42
g43
sbag1
(g9
g3
NtRp1067
(dp1068
g12
(dp1069
g14
Nsg15
F100
sg16
F100
sg17
(lp1070
F29995.070865949761
aF109.44635200744916
aF0.91263657596321157
aF1.5430806348152437
aI0
aF51529.722096349724
aF2800894996.7252998
aF242582594.70489514
aF11013.232920103323
aI0
aF29937.070865949761
aF1
aF9
aI0
aI0
aI0
aI20
aI0
aI0
aI0
aI0
aI0
aI0
aI0
aI0
aI0
aI0
aI0
aI0
aI0
aI0
aI0
aI0
aI0
aI0
aI0
aI0
aI0
aI0
aI0
aI0
aI0
aI0
aI0
aI0
aI0
aI0
aI0
aI0
aI0
aI0
aI0
aI0
aI0
aI0
aI0
aI0
aI0
aI0
aI0
aI0
aI0
aI0
aI0
aI0
aI0
aI0
aI0
aI0
aI0
aI0
aI0
aI0
aI0
aI0
aI0
aI0
aI0
aI0
aI0
aI0
aI0
aI0
aI0
aI0
aI0
aI0
aI0
aI0
aI0
aI0
aI0
aI0
aI0
aI0
aI0
aI0
aI0
aI0
aI0
aI0
aI0
aI0
aI0
aI0
aI0
aI0
aI0
aI0
aI0
aI0
aI0
aI0
aI0
aI0
aI0
aI0
aI0
aI0
aI0
aI0
aI0
aI0
aI0
aI0
aI0
aI0
aI0
aI0
aI0
aI0
aI0
aI0
aI0
aI0
aI0
aI0
aI0
aI0
aI0
aI0
aI0
aI0
aI0
aI0
aI0
aI0
aI0
aI0
aI0
aI0
aI0
aI0
aI0
aI0
aI0
aI0
aI0
aI0
aI0
aI0
aI0
aI0
aI0
aI0
aI0
aI0
aI0
aI0
aI0
aI0
aI0
aI0
aI0
aI0
aI0
aI0
aI0
aI0
aI0
aI0
aI0
aI0
aI0
aI0
aI0
aI0
aI0
aI0
aI0
aI0
aI0
aI0
aI0
aI0
aI0
aI0
aI0
aI0
aI0
asg19
F0
sg20
I01
sg21
g22
sg23
g24
sg25
F100
sg26
S'WK8KstflY@1H@?pkSp>hTK<<Gl3owrMG'
p1071
sg28
S'Error at Chromosome_0|math range error'
p1072
ssg30
Nsg31
I0
sg32
(lp1073
g1
(g34
g3
NtRp1074
(dp1075
g37
F0.10000000000000001
sg38
(lp1076
S'0'
aS'1'
asg40
(lp1077
S'1'
aS'1'
aS'0'
aS'1'
aS'1'
aS'1'
aS'1'
aS'1'
aS'1'
aS'1'
aS'1'
aS'0'
aS'0'
aS'0'
aS'1'
aS'1'
aS'1'
aS'1'
aS'1'
aS'1'
aS'1'
aS'0'
aS'0'
aS'0'
aS'0'
aS'1'
aS'0'
aS'1'
aS'0'
aS'0'
asbasg42
g43
sbag1
(g9
g3
NtRp1078
(dp1079
g12
(dp1080
g14
Nsg15
F100
sg16
F100
sg17
(lp1081
F15927965878556956
aF1.043843355934313
aF4.052356840206249e+72
aF5.8163792453876901
aF2.4463520074491623
aF4.052356840206249e+72
aF11039.232920103323
aF2.5885638931185782e+58
aF8.9259099329153967e+76
aF29937.070865949761
aF11039.232920103323
aF1
aI30
aF46821.327230765637
aF11013.232920103323
aF1
aI0
aI0
aI0
aI0
aI0
aI0
aI0
aI0
aI0
aI0
aI0
aI0
aI0
aI0
aI0
aI0
aI0
aI0
aI0
aI0
aI0
aI0
aI0
aI0
aI0
aI0
aI0
aI0
aI0
aI0
aI0
aI0
aI0
aI0
aI0
aI0
aI0
aI0
aI0
aI0
aI0
aI0
aI0
aI0
aI0
aI0
aI0
aI0
aI0
aI0
aI0
aI0
aI0
aI0
aI0
aI0
aI0
aI0
aI0
aI0
aI0
aI0
aI0
aI0
aI0
aI0
aI0
aI0
aI0
aI0
aI0
aI0
aI0
aI0
aI0
aI0
aI0
aI0
aI0
aI0
aI0
aI0
aI0
aI0
aI0
aI0
aI0
aI0
aI0
aI0
aI0
aI0
aI0
aI0
aI0
aI0
aI0
aI0
aI0
aI0
aI0
aI0
aI0
aI0
aI0
aI0
aI0
aI0
aI0
aI0
aI0
aI0
aI0
aI0
aI0
aI0
aI0
aI0
aI0
aI0
aI0
aI0
aI0
aI0
aI0
aI0
aI0
aI0
aI0
aI0
aI0
aI0
aI0
aI0
aI0
aI0
aI0
aI0
aI0
aI0
aI0
aI0
aI0
aI0
aI0
aI0
aI0
aI0
aI0
aI0
aI0
aI0
aI0
aI0
aI0
aI0
aI0
aI0
aI0
aI0
aI0
aI0
aI0
aI0
aI0
aI0
aI0
aI0
aI0
aI0
aI0
aI0
aI0
aI0
aI0
aI0
aI0
aI0
aI0
aI0
aI0
aI0
aI0
aI0
asg19
F0
sg20
I01
sg21
g22
sg23
g24
sg25
F100
sg26
S'nko15Zy4gnLP@<L8uSin1fzVK?mPhJ3x'
p1082
sg28
S'Error at Chromosome_0|math range error'
p1083
ssg30
Nsg31
I0
sg32
(lp1084
g1
(g34
g3
NtRp1085
(dp1086
g37
F0.10000000000000001
sg38
(lp1087
S'0'
aS'1'
asg40
(lp1088
S'1'
aS'1'
aS'1'
aS'0'
aS'1'
aS'1'
aS'0'
aS'0'
aS'1'
aS'0'
aS'0'
aS'0'
aS'0'
aS'0'
aS'1'
aS'1'
aS'0'
aS'0'
aS'1'
aS'1'
aS'0'
aS'0'
aS'0'
aS'1'
aS'0'
aS'0'
aS'0'
aS'0'
aS'0'
aS'0'
asbasg42
g43
sbag1
(g9
g3
NtRp1089
(dp1090
g12
(dp1091
g14
Nsg15
F100
sg16
F100
sg17
(lp1092
F56.004994770591566
aF0.76159415595576485
aF29931.070865949761
aI0
aI0
aF-5.9999999978577092
aF11011.232920103323
aF8.9259099329153967e+76
aF29967.07084924807
aI0
aF1.3043045862358962
aF-2.9999922419840432
aF8.9259099329153967e+76
aF10.999999999442107
aF1.5430806348152437
aI0
aF4.052356840206249e+72
aI0
aI0
aI0
aI0
aI0
aI0
aI0
aI0
aI0
aI0
aI0
aI0
aI0
aI0
aI0
aI0
aI0
aI0
aI0
aI0
aI0
aI0
aI0
aI0
aI0
aI0
aI0
aI0
aI0
aI0
aI0
aI0
aI0
aI0
aI0
aI0
aI0
aI0
aI0
aI0
aI0
aI0
aI0
aI0
aI0
aI0
aI0
aI0
aI0
aI0
aI0
aI0
aI0
aI0
aI0
aI0
aI0
aI0
aI0
aI0
aI0
aI0
aI0
aI0
aI0
aI0
aI0
aI0
aI0
aI0
aI0
aI0
aI0
aI0
aI0
aI0
aI0
aI0
aI0
aI0
aI0
aI0
aI0
aI0
aI0
aI0
aI0
aI0
aI0
aI0
aI0
aI0
aI0
aI0
aI0
aI0
aI0
aI0
aI0
aI0
aI0
aI0
aI0
aI0
aI0
aI0
aI0
aI0
aI0
aI0
aI0
aI0
aI0
aI0
aI0
aI0
aI0
aI0
aI0
aI0
aI0
aI0
aI0
aI0
aI0
aI0
aI0
aI0
aI0
aI0
aI0
aI0
aI0
aI0
aI0
aI0
aI0
aI0
aI0
aI0
aI0
aI0
aI0
aI0
aI0
aI0
aI0
aI0
aI0
aI0
aI0
aI0
aI0
aI0
aI0
aI0
aI0
aI0
aI0
aI0
aI0
aI0
aI0
aI0
aI0
aI0
aI0
aI0
aI0
aI0
aI0
aI0
aI0
aI0
aI0
aI0
aI0
aI0
aI0
aI0
aI0
aI0
aI0
asg19
F0
sg20
I01
sg21
g22
sg23
g24
sg25
F100
sg26
S'XIGwNG67t$A?Dz?yc@MeP=K1wi#eMsbl'
p1093
sg28
S'Error at Chromosome_0|math range error'
p1094
ssg30
Nsg31
I0
sg32
(lp1095
g1
(g34
g3
NtRp1096
(dp1097
g37
F0.10000000000000001
sg38
(lp1098
S'0'
aS'1'
asg40
(lp1099
S'1'
aS'1'
aS'0'
aS'0'
aS'0'
aS'1'
aS'0'
aS'1'
aS'1'
aS'0'
aS'1'
aS'0'
aS'0'
aS'0'
aS'0'
aS'0'
aS'0'
aS'0'
aS'1'
aS'1'
aS'1'
aS'0'
aS'0'
aS'0'
aS'0'
aS'1'
aS'0'
aS'0'
aS'0'
aS'0'
asbasg42
g43
sbag1
(g9
g3
NtRp1100
(dp1101
g12
(dp1102
g14
Nsg15
F100
sg16
F100
sg17
(lp1103
F29931.070865949761
aF1
aF0.89432119342919258
aF1
aF1.5430806348152437
aF9.9999999994421067
aF1.5430806345939598
aF2.2411498475036815
aF4.052356840206249e+72
aF2.4463520074491623
aF1.5430806331801648
aF51530.722096349724
aF21
aF2.4463520074491623
aI0
aF1
aF0.99999999944210638
aF5.8163792453876901
aF1.5430806348152437
aI0
aI0
aI0
aI0
aI0
aI0
aI0
aI0
aI0
aI0
aI0
aI0
aI0
aI0
aI0
aI0
aI0
aI0
aI0
aI0
aI0
aI0
aI0
aI0
aI0
aI0
aI0
aI0
aI0
aI0
aI0
aI0
aI0
aI0
aI0
aI0
aI0
aI0
aI0
aI0
aI0
aI0
aI0
aI0
aI0
aI0
aI0
aI0
aI0
aI0
aI0
aI0
aI0
aI0
aI0
aI0
aI0
aI0
aI0
aI0
aI0
aI0
aI0
aI0
aI0
aI0
aI0
aI0
aI0
aI0
aI0
aI0
aI0
aI0
aI0
aI0
aI0
aI0
aI0
aI0
aI0
aI0
aI0
aI0
aI0
aI0
aI0
aI0
aI0
aI0
aI0
aI0
aI0
aI0
aI0
aI0
aI0
aI0
aI0
aI0
aI0
aI0
aI0
aI0
aI0
aI0
aI0
aI0
aI0
aI0
aI0
aI0
aI0
aI0
aI0
aI0
aI0
aI0
aI0
aI0
aI0
aI0
aI0
aI0
aI0
aI0
aI0
aI0
aI0
aI0
aI0
aI0
aI0
aI0
aI0
aI0
aI0
aI0
aI0
aI0
aI0
aI0
aI0
aI0
aI0
aI0
aI0
aI0
aI0
aI0
aI0
aI0
aI0
aI0
aI0
aI0
aI0
aI0
aI0
aI0
aI0
aI0
aI0
aI0
aI0
aI0
aI0
aI0
aI0
aI0
aI0
aI0
aI0
aI0
aI0
aI0
aI0
aI0
aI0
aI0
aI0
asg19
F0
sg20
I01
sg21
g22
sg23
g24
sg25
F100
sg26
S'J##Q2Iv3ykJq@AMp4<eEe$JTf<>A@Bhu'
p1104
sg28
S'Error at Chromosome_0|math range error'
p1105
ssg30
Nsg31
I0
sg32
(lp1106
g1
(g34
g3
NtRp1107
(dp1108
g37
F0.10000000000000001
sg38
(lp1109
S'0'
aS'1'
asg40
(lp1110
S'1'
aS'0'
aS'0'
aS'1'
aS'1'
aS'0'
aS'0'
aS'0'
aS'0'
aS'0'
aS'1'
aS'0'
aS'0'
aS'1'
aS'0'
aS'1'
aS'0'
aS'0'
aS'0'
aS'1'
aS'1'
aS'0'
aS'1'
aS'0'
aS'0'
aS'0'
aS'1'
aS'1'
aS'0'
aS'0'
asbasg42
g43
sbag1
(g9
g3
NtRp1111
(dp1112
g12
(dp1113
g14
Nsg15
F100
sg16
F100
sg17
(lp1114
F0.84758090966694333
aF97864804714.419388
aF2.592352764293536e+21
aF1.1769263341851e+17
aF5343237290762.2314
aF11421105.181581847
aF29944.070865949761
aF1.5430806348152437
aF1
aF1
aF-1.7615941561900659
aF242582724.70489514
aF1.5430806348152437
aI0
aI0
aF1.0114416784150566
aF242582615.70489514
aI0
aI0
aI0
aF1.5430806348152437
aI0
aI0
aI0
aI0
aI0
aI0
aI0
aI0
aI0
aI0
aI0
aI0
aI0
aI0
aI0
aI0
aI0
aI0
aI0
aI0
aI0
aI0
aI0
aI0
aI0
aI0
aI0
aI0
aI0
aI0
aI0
aI0
aI0
aI0
aI0
aI0
aI0
aI0
aI0
aI0
aI0
aI0
aI0
aI0
aI0
aI0
aI0
aI0
aI0
aI0
aI0
aI0
aI0
aI0
aI0
aI0
aI0
aI0
aI0
aI0
aI0
aI0
aI0
aI0
aI0
aI0
aI0
aI0
aI0
aI0
aI0
aI0
aI0
aI0
aI0
aI0
aI0
aI0
aI0
aI0
aI0
aI0
aI0
aI0
aI0
aI0
aI0
aI0
aI0
aI0
aI0
aI0
aI0
aI0
aI0
aI0
aI0
aI0
aI0
aI0
aI0
aI0
aI0
aI0
aI0
aI0
aI0
aI0
aI0
aI0
aI0
aI0
aI0
aI0
aI0
aI0
aI0
aI0
aI0
aI0
aI0
aI0
aI0
aI0
aI0
aI0
aI0
aI0
aI0
aI0
aI0
aI0
aI0
aI0
aI0
aI0
aI0
aI0
aI0
aI0
aI0
aI0
aI0
aI0
aI0
aI0
aI0
aI0
aI0
aI0
aI0
aI0
aI0
aI0
aI0
aI0
aI0
aI0
aI0
aI0
aI0
aI0
aI0
aI0
aI0
aI0
aI0
aI0
aI0
aI0
aI0
aI0
aI0
aI0
aI0
aI0
aI0
aI0
aI0
asg19
F0
sg20
I01
sg21
g22
sg23
g24
sg25
F100
sg26
S'LVTsLBV3oe2RMINl2rfFFNR8?#8$?fK#'
p1115
sg28
S'Error at Chromosome_0|math range error'
p1116
ssg30
Nsg31
I0
sg32
(lp1117
g1
(g34
g3
NtRp1118
(dp1119
g37
F0.10000000000000001
sg38
(lp1120
S'0'
aS'1'
asg40
(lp1121
S'1'
aS'0'
aS'1'
aS'1'
aS'0'
aS'0'
aS'1'
aS'0'
aS'1'
aS'0'
aS'0'
aS'1'
aS'0'
aS'1'
aS'1'
aS'1'
aS'0'
aS'0'
aS'1'
aS'1'
aS'0'
aS'1'
aS'1'
aS'0'
aS'1'
aS'0'
aS'0'
aS'1'
aS'0'
aS'0'
asbasg42
g43
sbag1
(g9
g3
NtRp1122
(dp1123
g12
(dp1124
g14
Nsg15
F100
sg16
F100
sg17
(lp1125
F10
aF1
aI0
aF0.91263657596321157
aF1
aF89241188.481593639
aF30002.070865949761
aF47.761594155955763
aI0
aF29947.070865949761
aF0.91263657596321157
aF1.8308439304015109
aF1.028553532011165
aF0.64201499201199974
aI8
aF0.64201499201199974
aF0.56626997596147965
aI18
aI0
aI0
aF0.76159415595576485
aI0
aI0
aI0
aI0
aI0
aI0
aI0
aI0
aI0
aI0
aI0
aI0
aI0
aI0
aI0
aI0
aI0
aI0
aI0
aI0
aI0
aI0
aI0
aI0
aI0
aI0
aI0
aI0
aI0
aI0
aI0
aI0
aI0
aI0
aI0
aI0
aI0
aI0
aI0
aI0
aI0
aI0
aI0
aI0
aI0
aI0
aI0
aI0
aI0
aI0
aI0
aI0
aI0
aI0
aI0
aI0
aI0
aI0
aI0
aI0
aI0
aI0
aI0
aI0
aI0
aI0
aI0
aI0
aI0
aI0
aI0
aI0
aI0
aI0
aI0
aI0
aI0
aI0
aI0
aI0
aI0
aI0
aI0
aI0
aI0
aI0
aI0
aI0
aI0
aI0
aI0
aI0
aI0
aI0
aI0
aI0
aI0
aI0
aI0
aI0
aI0
aI0
aI0
aI0
aI0
aI0
aI0
aI0
aI0
aI0
aI0
aI0
aI0
aI0
aI0
aI0
aI0
aI0
aI0
aI0
aI0
aI0
aI0
aI0
aI0
aI0
aI0
aI0
aI0
aI0
aI0
aI0
aI0
aI0
aI0
aI0
aI0
aI0
aI0
aI0
aI0
aI0
aI0
aI0
aI0
aI0
aI0
aI0
aI0
aI0
aI0
aI0
aI0
aI0
aI0
aI0
aI0
aI0
aI0
aI0
aI0
aI0
aI0
aI0
aI0
aI0
aI0
aI0
aI0
aI0
aI0
aI0
aI0
aI0
aI0
aI0
aI0
aI0
aI0
asg19
F0
sg20
I01
sg21
g22
sg23
g24
sg25
F100
sg26
S'Fqbj@aWgcgRo?JwDw3k#i?&X$>Z9vXR$'
p1126
sg28
S'Error at Chromosome_0|math range error'
p1127
ssg30
Nsg31
I0
sg32
(lp1128
g1
(g34
g3
NtRp1129
(dp1130
g37
F0.10000000000000001
sg38
(lp1131
S'0'
aS'1'
asg40
(lp1132
S'0'
aS'1'
aS'1'
aS'0'
aS'1'
aS'0'
aS'0'
aS'0'
aS'0'
aS'0'
aS'1'
aS'1'
aS'1'
aS'0'
aS'1'
aS'0'
aS'0'
aS'0'
aS'0'
aS'0'
aS'1'
aS'0'
aS'0'
aS'1'
aS'0'
aS'1'
aS'1'
aS'1'
aS'0'
aS'0'
asbasg42
g43
sbasS'goal'
p1133
I0
sS'maxgenerations'
p1134
I100
sb.